(lp0
(I1491180269
(dp1
S'learn_rate'
p2
F0.003
sS'b'
p3
F0.5
sS'shuffle'
p4
I00
sS'f'
p5
F0.5
sS'reapeat_sequence'
p6
I100
sS'ham_dist_threshold'
p7
F0.01
sS'eps'
p8
F1.2
sS'N'
p9
I201
sS'initial_mean'
p10
I1
sS'nbr_patterns'
p11
I10
sS'initial_variance'
p12
I1
sS'test_length'
p13
I100
sS'theta'
p14
F70.0
sS'nb_iter'
p15
I10
sS'test_nb_iter'
p16
I30
sS'successful_storage_rate'
p17
F0.9
sS'gamma'
p18
F6.0
s(dp19
S'successful_storage'
p20
cnumpy.core.multiarray
scalar
p21
(cnumpy
dtype
p22
(S'f8'
p23
I0
I1
tp24
Rp25
(I3
S'<'
p26
NNNI-1
I-1
I0
tp27
bS'\x9a\x99\x99\x99\x99\x99\xd9?'
p28
tp29
Rp30
sS'avg_dist'
p31
g21
(g25
S'MK\xfao*_\xb4?'
p32
tp33
Rp34
sS'err'
p35
g21
(g25
S'\x9b\xc4 \xb0rh\xe9?'
p36
tp37
Rp38
stp39
a(I1491180286
(dp40
g2
F0.003
sg3
F0.5
sg4
I00
sg5
F0.5
sg6
I100
sg7
F0.01
sg8
F1.2
sg9
I201
sg10
I1
sg11
I20
sg12
I1
sg13
I100
sg14
F70.0
sg15
I10
sg16
I30
sg17
F0.9
sg18
F6.0
s(dp41
g20
g21
(g25
S'\x9a\x99\x99\x99\x99\x99\xb9?'
p42
tp43
Rp44
sg31
g21
(g25
S'\xa3\xda\x169\x99\x9a\xcf?'
p45
tp46
Rp47
sg35
g21
(g25
S'\xc0\x9f\x1a/\xdd$\xda?'
p48
tp49
Rp50
stp51
a(I1491180319
(dp52
g2
F0.003
sg3
F0.5
sg4
I00
sg5
F0.5
sg6
I100
sg7
F0.01
sg8
F1.2
sg9
I201
sg10
I1
sg11
I40
sg12
I1
sg13
I100
sg14
F70.0
sg15
I10
sg16
I30
sg17
F0.9
sg18
F6.0
s(dp53
g20
g21
(g25
S'\x00\x00\x00\x00\x00\x00\x00\x00'
p54
tp55
Rp56
sg31
g21
(g25
S'\xaaS)\x08\xb3\xd9\xd4?'
p57
tp58
Rp59
sg35
g21
(g25
S'h\xe5\xd0"\xdb\xf9\xbe?'
p60
tp61
Rp62
stp63
a(I1491180378
(dp64
g2
F0.003
sg3
F0.5
sg4
I00
sg5
F0.5
sg6
I100
sg7
F0.01
sg8
F1.2
sg9
I201
sg10
I1
sg11
I70
sg12
I1
sg13
I100
sg14
F70.0
sg15
I10
sg16
I30
sg17
F0.9
sg18
F6.0
s(dp65
g20
g21
(g25
S'\x00\x00\x00\x00\x00\x00\x00\x00'
p66
tp67
Rp68
sg31
g21
(g25
S'%\x95\x951\xa5:\xda?'
p69
tp70
Rp71
sg35
g21
(g25
S'\x00P]\x83}\xb9B?'
p72
tp73
Rp74
stp75
a(I1491180451
(dp76
g2
F0.003
sg3
F0.5
sg4
I00
sg5
F0.5
sg6
I100
sg7
F0.01
sg8
F1.2
sg9
I201
sg10
I1
sg11
I85
sg12
I1
sg13
I100
sg14
F70.0
sg15
I10
sg16
I30
sg17
F0.9
sg18
F6.0
s(dp77
g20
g21
(g25
S'\x00\x00\x00\x00\x00\x00\x00\x00'
p78
tp79
Rp80
sg31
g21
(g25
S'\xf8.\xb15\xad\xc3\xda?'
p81
tp82
Rp83
sg35
g21
(g25
S'\x00\x00\x00\x00\x00\x00\x00\x00'
p84
tp85
Rp86
stp87
a(I1491180539
(dp88
g2
F0.003
sg3
F0.5
sg4
I00
sg5
F0.5
sg6
I100
sg7
F0.01
sg8
F1.2
sg9
I201
sg10
I1
sg11
I100
sg12
I1
sg13
I100
sg14
F70.0
sg15
I10
sg16
I30
sg17
F0.9
sg18
F6.0
s(dp89
g20
g21
(g25
S'\x00\x00\x00\x00\x00\x00\x00\x00'
p90
tp91
Rp92
sg31
g21
(g25
S'\xdf\xa8#M24\xda?'
p93
tp94
Rp95
sg35
g21
(g25
S'\x00\x00\x00\x00\x00\x00\x00\x00'
p96
tp97
Rp98
stp99
a(I1491180547
(dp100
g2
F0.003
sg3
F0.5
sg4
I00
sg5
F0.5
sg6
I100
sg7
F0.01
sg8
F1.5
sg9
I201
sg10
I1
sg11
I10
sg12
I1
sg13
I100
sg14
F70.0
sg15
I10
sg16
I30
sg17
F0.9
sg18
F6.0
s(dp101
g20
g21
(g25
S'\xcd\xcc\xcc\xcc\xcc\xcc\xec?'
p102
tp103
Rp104
sg31
g21
(g25
S'.V>\x92\x83\xa3\x90?'
p105
tp106
Rp107
sg35
g21
(g25
S'7\x89A`\xe5\xd0\xee?'
p108
tp109
Rp110
stp111
a(I1491180566
(dp112
g2
F0.003
sg3
F0.5
sg4
I00
sg5
F0.5
sg6
I100
sg7
F0.01
sg8
F1.5
sg9
I201
sg10
I1
sg11
I20
sg12
I1
sg13
I100
sg14
F70.0
sg15
I10
sg16
I30
sg17
F0.9
sg18
F6.0
s(dp113
g20
g21
(g25
S'\x00\x00\x00\x00\x00\x00\xd0?'
p114
tp115
Rp116
sg31
g21
(g25
S'\xd9+\x1d=\xaa\x0c\xb1?'
p117
tp118
Rp119
sg35
g21
(g25
S'j\xbct\x93\x18\x04\xea?'
p120
tp121
Rp122
stp123
a(I1491180601
(dp124
g2
F0.003
sg3
F0.5
sg4
I00
sg5
F0.5
sg6
I100
sg7
F0.01
sg8
F1.5
sg9
I201
sg10
I1
sg11
I40
sg12
I1
sg13
I100
sg14
F70.0
sg15
I10
sg16
I30
sg17
F0.9
sg18
F6.0
s(dp125
g20
g21
(g25
S'\x00\x00\x00\x00\x00\x00\x00\x00'
p126
tp127
Rp128
sg31
g21
(g25
S'\xca\x1c\xebY;\x93\xce?'
p129
tp130
Rp131
sg35
g21
(g25
S'th\x91\xed|?\xd5?'
p132
tp133
Rp134
stp135
a(I1491180665
(dp136
g2
F0.003
sg3
F0.5
sg4
I00
sg5
F0.5
sg6
I100
sg7
F0.01
sg8
F1.5
sg9
I201
sg10
I1
sg11
I70
sg12
I1
sg13
I100
sg14
F70.0
sg15
I10
sg16
I30
sg17
F0.9
sg18
F6.0
s(dp137
g20
g21
(g25
S'\x00\x00\x00\x00\x00\x00\x00\x00'
p138
tp139
Rp140
sg31
g21
(g25
S'n\x92\x03\xce\xb6y\xd7?'
p141
tp142
Rp143
sg35
g21
(g25
S'\x00(\xd6l\xa4\xeaj?'
p144
tp145
Rp146
stp147
a(I1491180742
(dp148
g2
F0.003
sg3
F0.5
sg4
I00
sg5
F0.5
sg6
I100
sg7
F0.01
sg8
F1.5
sg9
I201
sg10
I1
sg11
I85
sg12
I1
sg13
I100
sg14
F70.0
sg15
I10
sg16
I30
sg17
F0.9
sg18
F6.0
s(dp149
g20
g21
(g25
S'\x00\x00\x00\x00\x00\x00\x00\x00'
p150
tp151
Rp152
sg31
g21
(g25
S'\xa1\x10 QnQ\xd8?'
p153
tp154
Rp155
sg35
g21
(g25
S'\x00\xa0\x99\x14)\xd7\x1e?'
p156
tp157
Rp158
stp159
a(I1491180835
(dp160
g2
F0.003
sg3
F0.5
sg4
I00
sg5
F0.5
sg6
I100
sg7
F0.01
sg8
F1.5
sg9
I201
sg10
I1
sg11
I100
sg12
I1
sg13
I100
sg14
F70.0
sg15
I10
sg16
I30
sg17
F0.9
sg18
F6.0
s(dp161
g20
g21
(g25
S'\x00\x00\x00\x00\x00\x00\x00\x00'
p162
tp163
Rp164
sg31
g21
(g25
S'\x81\xeeb<\xb7\xd2\xdd?'
p165
tp166
Rp167
sg35
g21
(g25
S'\x00\x00\x00\x00\x00\x00\x00\x00'
p168
tp169
Rp170
stp171
a(I1491180844
(dp172
g2
F0.003
sg3
F0.5
sg4
I00
sg5
F0.5
sg6
I100
sg7
F0.01
sg8
F1.8
sg9
I201
sg10
I1
sg11
I10
sg12
I1
sg13
I100
sg14
F70.0
sg15
I10
sg16
I30
sg17
F0.9
sg18
F6.0
s(dp173
g20
g21
(g25
S'\x00\x00\x00\x00\x00\x00\xf0?'
p174
tp175
Rp176
sg31
g21
(g25
S'O\x0b\xe2\xcb\x9e\xf3\x82?'
p177
tp178
Rp179
sg35
g21
(g25
S'1\x08\xac\x1cZd\xef?'
p180
tp181
Rp182
stp183
a(I1491180865
(dp184
g2
F0.003
sg3
F0.5
sg4
I00
sg5
F0.5
sg6
I100
sg7
F0.01
sg8
F1.8
sg9
I201
sg10
I1
sg11
I20
sg12
I1
sg13
I100
sg14
F70.0
sg15
I10
sg16
I30
sg17
F0.9
sg18
F6.0
s(dp185
g20
g21
(g25
S'\xcd\xcc\xcc\xcc\xcc\xcc\xe4?'
p186
tp187
Rp188
sg31
g21
(g25
S'\xbb\xf7\xbb0\xbd\x18\xa4?'
p189
tp190
Rp191
sg35
g21
(g25
S'^\xbaI\x0c\x02+\xed?'
p192
tp193
Rp194
stp195
a(I1491180902
(dp196
g2
F0.003
sg3
F0.5
sg4
I00
sg5
F0.5
sg6
I100
sg7
F0.01
sg8
F1.8
sg9
I201
sg10
I1
sg11
I40
sg12
I1
sg13
I100
sg14
F70.0
sg15
I10
sg16
I30
sg17
F0.9
sg18
F6.0
s(dp197
g20
g21
(g25
S'\x9a\x99\x99\x99\x99\x99\x99?'
p198
tp199
Rp200
sg31
g21
(g25
S'\xbf\xa4K\x00g\x87\xc3?'
p201
tp202
Rp203
sg35
g21
(g25
S'\xc9v\xbe\x9f\x1a/\xe1?'
p204
tp205
Rp206
stp207
a(I1491180964
(dp208
g2
F0.003
sg3
F0.5
sg4
I00
sg5
F0.5
sg6
I100
sg7
F0.01
sg8
F1.8
sg9
I201
sg10
I1
sg11
I70
sg12
I1
sg13
I100
sg14
F70.0
sg15
I10
sg16
I30
sg17
F0.9
sg18
F6.0
s(dp209
g20
g21
(g25
S'\x00\x00\x00\x00\x00\x00\x00\x00'
p210
tp211
Rp212
sg31
g21
(g25
S'\xd6\x08\xc2\x18\x85\x9b\xd4?'
p213
tp214
Rp215
sg35
g21
(g25
S' \xef\xea\xd7\xda<\x90?'
p216
tp217
Rp218
stp219
a(I1491181037
(dp220
g2
F0.003
sg3
F0.5
sg4
I00
sg5
F0.5
sg6
I100
sg7
F0.01
sg8
F1.8
sg9
I201
sg10
I1
sg11
I85
sg12
I1
sg13
I100
sg14
F70.0
sg15
I10
sg16
I30
sg17
F0.9
sg18
F6.0
s(dp221
g20
g21
(g25
S'\x00\x00\x00\x00\x00\x00\x00\x00'
p222
tp223
Rp224
sg31
g21
(g25
S'\xb3\x9f\xe6vg6\xd9?'
p225
tp226
Rp227
sg35
g21
(g25
S'\x00\x00\x00\x00\x00\x00\x00\x00'
p228
tp229
Rp230
stp231
a(I1491181124
(dp232
g2
F0.003
sg3
F0.5
sg4
I00
sg5
F0.5
sg6
I100
sg7
F0.01
sg8
F1.8
sg9
I201
sg10
I1
sg11
I100
sg12
I1
sg13
I100
sg14
F70.0
sg15
I10
sg16
I30
sg17
F0.9
sg18
F6.0
s(dp233
g20
g21
(g25
S'\x00\x00\x00\x00\x00\x00\x00\x00'
p234
tp235
Rp236
sg31
g21
(g25
S'\xca{B\x87\x01\xa2\xd8?'
p237
tp238
Rp239
sg35
g21
(g25
S'\x00\x00\x00\x00\x00\x00\x00\x00'
p240
tp241
Rp242
stp243
a(I1491181132
(dp244
g2
F0.003
sg3
F0.5
sg4
I00
sg5
F0.5
sg6
I100
sg7
F0.01
sg8
F2.1
sg9
I201
sg10
I1
sg11
I10
sg12
I1
sg13
I100
sg14
F70.0
sg15
I10
sg16
I30
sg17
F0.9
sg18
F6.0
s(dp245
g20
g21
(g25
S'\x00\x00\x00\x00\x00\x00\xf0?'
p246
tp247
Rp248
sg31
g21
(g25
S'~\x82E\xd2\xe7\xa0@?'
p249
tp250
Rp251
sg35
g21
(g25
S'+\x87\x16\xd9\xce\xf7\xef?'
p252
tp253
Rp254
stp255
a(I1491181148
(dp256
g2
F0.003
sg3
F0.5
sg4
I00
sg5
F0.5
sg6
I100
sg7
F0.01
sg8
F2.1
sg9
I201
sg10
I1
sg11
I20
sg12
I1
sg13
I100
sg14
F70.0
sg15
I10
sg16
I30
sg17
F0.9
sg18
F6.0
s(dp257
g20
g21
(g25
S'\x00\x00\x00\x00\x00\x00\xf0?'
p258
tp259
Rp260
sg31
g21
(g25
S'\xd5 \xa2\xf8\x96\xf3\x89?'
p261
tp262
Rp263
sg35
g21
(g25
S'b\x10X9\xb4\xc8\xee?'
p264
tp265
Rp266
stp267
a(I1491181188
(dp268
g2
F0.003
sg3
F0.5
sg4
I00
sg5
F0.5
sg6
I100
sg7
F0.01
sg8
F2.1
sg9
I201
sg10
I1
sg11
I40
sg12
I1
sg13
I100
sg14
F70.0
sg15
I10
sg16
I30
sg17
F0.9
sg18
F6.0
s(dp269
g20
g21
(g25
S'\x9a\x99\x99\x99\x99\x99\xb9?'
p270
tp271
Rp272
sg31
g21
(g25
S'\xcc\x0f\x8a*\x9d\x13\xb7?'
p273
tp274
Rp275
sg35
g21
(g25
S'\xb6\xf3\xfd\xd4x\xe9\xe6?'
p276
tp277
Rp278
stp279
a(I1491181253
(dp280
g2
F0.003
sg3
F0.5
sg4
I00
sg5
F0.5
sg6
I100
sg7
F0.01
sg8
F2.1
sg9
I201
sg10
I1
sg11
I70
sg12
I1
sg13
I100
sg14
F70.0
sg15
I10
sg16
I30
sg17
F0.9
sg18
F6.0
s(dp281
g20
g21
(g25
S'\x00\x00\x00\x00\x00\x00\x00\x00'
p282
tp283
Rp284
sg31
g21
(g25
S'\xe2pZn\x9e\x9c\xd3?'
p285
tp286
Rp287
sg35
g21
(g25
S'\x80\xa9w\xf5km\x8e?'
p288
tp289
Rp290
stp291
a(I1491181332
(dp292
g2
F0.003
sg3
F0.5
sg4
I00
sg5
F0.5
sg6
I100
sg7
F0.01
sg8
F2.1
sg9
I201
sg10
I1
sg11
I85
sg12
I1
sg13
I100
sg14
F70.0
sg15
I10
sg16
I30
sg17
F0.9
sg18
F6.0
s(dp293
g20
g21
(g25
S'\x00\x00\x00\x00\x00\x00\x00\x00'
p294
tp295
Rp296
sg31
g21
(g25
S'\x1d\xfb\x8ffs\xf7\xd7?'
p297
tp298
Rp299
sg35
g21
(g25
S'\x00\x00\x00\x00\x00\x00\x00\x00'
p300
tp301
Rp302
stp303
a(I1491181420
(dp304
g2
F0.003
sg3
F0.5
sg4
I00
sg5
F0.5
sg6
I100
sg7
F0.01
sg8
F2.1
sg9
I201
sg10
I1
sg11
I100
sg12
I1
sg13
I100
sg14
F70.0
sg15
I10
sg16
I30
sg17
F0.9
sg18
F6.0
s(dp305
g20
g21
(g25
S'\x00\x00\x00\x00\x00\x00\x00\x00'
p306
tp307
Rp308
sg31
g21
(g25
S'\xae\xa0e9\xca<\xd9?'
p309
tp310
Rp311
sg35
g21
(g25
S'\x00\x00\x00\x00\x00\x00\x00\x00'
p312
tp313
Rp314
stp315
a(I1491181513
(dp316
S'learn_rate'
p317
F0.003
sS'b'
p318
F0.2
sS'shuffle'
p319
I00
sS'f'
p320
F0.5
sS'reapeat_sequence'
p321
I100
sS'ham_dist_threshold'
p322
F0.01
sS'eps'
p323
F1.2
sS'N'
p324
I201
sS'nbr_patterns'
p325
I10
sS'initial_variance'
p326
I1
sS'theta'
p327
F70.0
sS'test_length'
p328
I100
sS'initial_mean'
p329
I1
sS'nb_iter'
p330
I10
sS'test_nb_iter'
p331
I30
sS'successful_storage_rate'
p332
F0.9
sS'gamma'
p333
F6.0
s(dp334
S'successful_storage'
p335
g21
(g25
S'\xcd\xcc\xcc\xcc\xcc\xcc\xec?'
p336
tp337
Rp338
sS'avg_dist'
p339
g21
(g25
S'!\x10=\x0b\x9d/\x83?'
p340
tp341
Rp342
sS'err'
p343
g21
(g25
S'\x87\x16\xd9\xce\xf7S\xef?'
p344
tp345
Rp346
stp347
a(I1491181530
(dp348
g317
F0.003
sg318
F0.2
sg319
I00
sg320
F0.5
sg321
I100
sg322
F0.01
sg323
F1.2
sg324
I201
sg325
I20
sg326
I1
sg327
F70.0
sg328
I100
sg329
I1
sg330
I10
sg331
I30
sg332
F0.9
sg333
F6.0
s(dp349
g335
g21
(g25
S'333333\xeb?'
p350
tp351
Rp352
sg339
g21
(g25
S'\x8d\xdf\xb6\x14#I\xae?'
p353
tp354
Rp355
sg343
g21
(g25
S'\xb6\xf3\xfd\xd4x\xe9\xea?'
p356
tp357
Rp358
stp359
a(I1491181562
(dp360
g317
F0.003
sg318
F0.2
sg319
I00
sg320
F0.5
sg321
I100
sg322
F0.01
sg323
F1.2
sg324
I201
sg325
I40
sg326
I1
sg327
F70.0
sg328
I100
sg329
I1
sg330
I10
sg331
I30
sg332
F0.9
sg333
F6.0
s(dp361
g335
g21
(g25
S'\xcd\xcc\xcc\xcc\xcc\xcc\xe4?'
p362
tp363
Rp364
sg339
g21
(g25
S'\x15\xd5c\xb2l\xc4\xaa?'
p365
tp366
Rp367
sg343
g21
(g25
S'\xf4\xfd\xd4x\xe9&\xe9?'
p368
tp369
Rp370
stp371
a(I1491181624
(dp372
g317
F0.003
sg318
F0.2
sg319
I00
sg320
F0.5
sg321
I100
sg322
F0.01
sg323
F1.2
sg324
I201
sg325
I70
sg326
I1
sg327
F70.0
sg328
I100
sg329
I1
sg330
I10
sg331
I30
sg332
F0.9
sg333
F6.0
s(dp373
g335
g21
(g25
S'\x00\x00\x00\x00\x00\x00\x00\x00'
p374
tp375
Rp376
sg339
g21
(g25
S'\xb0\x97\xf9erU\xcb?'
p377
tp378
Rp379
sg343
g21
(g25
S'T\xcb\x1b#\x98\xe8\xcf?'
p380
tp381
Rp382
stp383
a(I1491181715
(dp384
g317
F0.003
sg318
F0.2
sg319
I00
sg320
F0.5
sg321
I100
sg322
F0.01
sg323
F1.2
sg324
I201
sg325
I100
sg326
I1
sg327
F70.0
sg328
I100
sg329
I1
sg330
I10
sg331
I30
sg332
F0.9
sg333
F6.0
s(dp385
g335
g21
(g25
S'\x00\x00\x00\x00\x00\x00\x00\x00'
p386
tp387
Rp388
sg339
g21
(g25
S'\xda\xdb\xfe\xaf;F\xd7?'
p389
tp390
Rp391
sg343
g21
(g25
S'\x00\xd8_vO\x1ef?'
p392
tp393
Rp394
stp395
a(I1491181723
(dp396
g317
F0.003
sg318
F0.2
sg319
I00
sg320
F0.5
sg321
I100
sg322
F0.01
sg323
F1.5
sg324
I201
sg325
I10
sg326
I1
sg327
F70.0
sg328
I100
sg329
I1
sg330
I10
sg331
I30
sg332
F0.9
sg333
F6.0
s(dp397
g335
g21
(g25
S'\x00\x00\x00\x00\x00\x00\xf0?'
p398
tp399
Rp400
sg339
g21
(g25
S'\xed@\xec\xa9\xffL\x0f?'
p401
tp402
Rp403
sg343
g21
(g25
S'V\x0e-\xb2\x9d\xef\xef?'
p404
tp405
Rp406
stp407
a(I1491181741
(dp408
g317
F0.003
sg318
F0.2
sg319
I00
sg320
F0.5
sg321
I100
sg322
F0.01
sg323
F1.5
sg324
I201
sg325
I20
sg326
I1
sg327
F70.0
sg328
I100
sg329
I1
sg330
I10
sg331
I30
sg332
F0.9
sg333
F6.0
s(dp409
g335
g21
(g25
S'\x00\x00\x00\x00\x00\x00\xf0?'
p410
tp411
Rp412
sg339
g21
(g25
S'\xeb\x05_\xaaC#??'
p413
tp414
Rp415
sg343
g21
(g25
S'V\x0e-\xb2\x9d\xef\xef?'
p416
tp417
Rp418
stp419
a(I1491181774
(dp420
g317
F0.003
sg318
F0.2
sg319
I00
sg320
F0.5
sg321
I100
sg322
F0.01
sg323
F1.5
sg324
I201
sg325
I40
sg326
I1
sg327
F70.0
sg328
I100
sg329
I1
sg330
I10
sg331
I30
sg332
F0.9
sg333
F6.0
s(dp421
g335
g21
(g25
S'\x00\x00\x00\x00\x00\x00\xec?'
p422
tp423
Rp424
sg339
g21
(g25
S'\xb0q\xa2\x05K9u?'
p425
tp426
Rp427
sg343
g21
(g25
S'+\x87\x16\xd9\xce\xf7\xed?'
p428
tp429
Rp430
stp431
a(I1491181836
(dp432
g317
F0.003
sg318
F0.2
sg319
I00
sg320
F0.5
sg321
I100
sg322
F0.01
sg323
F1.5
sg324
I201
sg325
I70
sg326
I1
sg327
F70.0
sg328
I100
sg329
I1
sg330
I10
sg331
I30
sg332
F0.9
sg333
F6.0
s(dp433
g335
g21
(g25
S'\x92$I\x92$I\xc2?'
p434
tp435
Rp436
sg339
g21
(g25
S'\x99\xe0\x17\xa46\x1f\xb4?'
p437
tp438
Rp439
sg343
g21
(g25
S'\xda\x05\xc4\xa6\xd2\x90\xe3?'
p440
tp441
Rp442
stp443
a(I1491181924
(dp444
g317
F0.003
sg318
F0.2
sg319
I00
sg320
F0.5
sg321
I100
sg322
F0.01
sg323
F1.5
sg324
I201
sg325
I100
sg326
I1
sg327
F70.0
sg328
I100
sg329
I1
sg330
I10
sg331
I30
sg332
F0.9
sg333
F6.0
s(dp445
g335
g21
(g25
S'\x00\x00\x00\x00\x00\x00\x00\x00'
p446
tp447
Rp448
sg339
g21
(g25
S'\x94\xb2\x83u%\xc2\xd4?'
p449
tp450
Rp451
sg343
g21
(g25
S'\xc0\x07\xce\x19Q\xda\x8b?'
p452
tp453
Rp454
stp455
a(I1491181933
(dp456
g317
F0.003
sg318
F0.2
sg319
I00
sg320
F0.5
sg321
I100
sg322
F0.01
sg323
F1.8
sg324
I201
sg325
I10
sg326
I1
sg327
F70.0
sg328
I100
sg329
I1
sg330
I10
sg331
I30
sg332
F0.9
sg333
F6.0
s(dp457
g335
g21
(g25
S'\x00\x00\x00\x00\x00\x00\xf0?'
p458
tp459
Rp460
sg339
g21
(g25
S'\x00\x00\x00\x00\x00\x00\x00\x00'
p461
tp462
Rp463
sg343
g21
(g25
S'\x00\x00\x00\x00\x00\x00\xf0?'
p464
tp465
Rp466
stp467
a(I1491181949
(dp468
g317
F0.003
sg318
F0.2
sg319
I00
sg320
F0.5
sg321
I100
sg322
F0.01
sg323
F1.8
sg324
I201
sg325
I20
sg326
I1
sg327
F70.0
sg328
I100
sg329
I1
sg330
I10
sg331
I30
sg332
F0.9
sg333
F6.0
s(dp469
g335
g21
(g25
S'\x00\x00\x00\x00\x00\x00\xf0?'
p470
tp471
Rp472
sg339
g21
(g25
S'\x00\x00\x00\x00\x00\x00\x00\x00'
p473
tp474
Rp475
sg343
g21
(g25
S'\x00\x00\x00\x00\x00\x00\xf0?'
p476
tp477
Rp478
stp479
a(I1491181984
(dp480
g317
F0.003
sg318
F0.2
sg319
I00
sg320
F0.5
sg321
I100
sg322
F0.01
sg323
F1.8
sg324
I201
sg325
I40
sg326
I1
sg327
F70.0
sg328
I100
sg329
I1
sg330
I10
sg331
I30
sg332
F0.9
sg333
F6.0
s(dp481
g335
g21
(g25
S'333333\xef?'
p482
tp483
Rp484
sg339
g21
(g25
S'\r\xe4\xaa\xcc\x95\xaaB?'
p485
tp486
Rp487
sg343
g21
(g25
S'\x19\x04V\x0e-\xb2\xef?'
p488
tp489
Rp490
stp491
a(I1491182047
(dp492
g317
F0.003
sg318
F0.2
sg319
I00
sg320
F0.5
sg321
I100
sg322
F0.01
sg323
F1.8
sg324
I201
sg325
I70
sg326
I1
sg327
F70.0
sg328
I100
sg329
I1
sg330
I10
sg331
I30
sg332
F0.9
sg333
F6.0
s(dp493
g335
g21
(g25
S'P\x07uP\x07u\xd0?'
p494
tp495
Rp496
sg339
g21
(g25
S'$\xe6\xcc`\x13U\xa0?'
p497
tp498
Rp499
sg343
g21
(g25
S'8\x0fd~\xf0\xde\xe6?'
p500
tp501
Rp502
stp503
a(I1491182133
(dp504
g317
F0.003
sg318
F0.2
sg319
I00
sg320
F0.5
sg321
I100
sg322
F0.01
sg323
F1.8
sg324
I201
sg325
I100
sg326
I1
sg327
F70.0
sg328
I100
sg329
I1
sg330
I10
sg331
I30
sg332
F0.9
sg333
F6.0
s(dp505
g335
g21
(g25
S'\x00\x00\x00\x00\x00\x00\x00\x00'
p506
tp507
Rp508
sg339
g21
(g25
S'0\x8cd\xdb\x8b\xb1\xd2?'
p509
tp510
Rp511
sg343
g21
(g25
S'\xc0\xf1\xd2Mb\x10\x98?'
p512
tp513
Rp514
stp515
a(I1491182141
(dp516
g317
F0.003
sg318
F0.2
sg319
I00
sg320
F0.5
sg321
I100
sg322
F0.01
sg323
F2.1
sg324
I201
sg325
I10
sg326
I1
sg327
F70.0
sg328
I100
sg329
I1
sg330
I10
sg331
I30
sg332
F0.9
sg333
F6.0
s(dp517
g335
g21
(g25
S'\x00\x00\x00\x00\x00\x00\xf0?'
p518
tp519
Rp520
sg339
g21
(g25
S'\x00\x00\x00\x00\x00\x00\x00\x00'
p521
tp522
Rp523
sg343
g21
(g25
S'\x00\x00\x00\x00\x00\x00\xf0?'
p524
tp525
Rp526
stp527
a(I1491182159
(dp528
g317
F0.003
sg318
F0.2
sg319
I00
sg320
F0.5
sg321
I100
sg322
F0.01
sg323
F2.1
sg324
I201
sg325
I20
sg326
I1
sg327
F70.0
sg328
I100
sg329
I1
sg330
I10
sg331
I30
sg332
F0.9
sg333
F6.0
s(dp529
g335
g21
(g25
S'\x00\x00\x00\x00\x00\x00\xf0?'
p530
tp531
Rp532
sg339
g21
(g25
S'\x00\x00\x00\x00\x00\x00\x00\x00'
p533
tp534
Rp535
sg343
g21
(g25
S'\x00\x00\x00\x00\x00\x00\xf0?'
p536
tp537
Rp538
stp539
a(I1491182195
(dp540
g317
F0.003
sg318
F0.2
sg319
I00
sg320
F0.5
sg321
I100
sg322
F0.01
sg323
F2.1
sg324
I201
sg325
I40
sg326
I1
sg327
F70.0
sg328
I100
sg329
I1
sg330
I10
sg331
I30
sg332
F0.9
sg333
F6.0
s(dp541
g335
g21
(g25
S'\x00\x00\x00\x00\x00\x00\xf0?'
p542
tp543
Rp544
sg339
g21
(g25
S'\xa5\xe2\xec\xc3g\xd8\x15?'
p545
tp546
Rp547
sg343
g21
(g25
S'\xcb\xa1E\xb6\xf3\xfd\xef?'
p548
tp549
Rp550
stp551
a(I1491182260
(dp552
g317
F0.003
sg318
F0.2
sg319
I00
sg320
F0.5
sg321
I100
sg322
F0.01
sg323
F2.1
sg324
I201
sg325
I70
sg326
I1
sg327
F70.0
sg328
I100
sg329
I1
sg330
I10
sg331
I30
sg332
F0.9
sg333
F6.0
s(dp553
g335
g21
(g25
S'\x07uP\x07uP\xe7?'
p554
tp555
Rp556
sg339
g21
(g25
S'M\xe1v\xa8M\x88\x82?'
p557
tp558
Rp559
sg343
g21
(g25
S'\x9ei\x85\xa8@)\xed?'
p560
tp561
Rp562
stp563
a(I1491182353
(dp564
g317
F0.003
sg318
F0.2
sg319
I00
sg320
F0.5
sg321
I100
sg322
F0.01
sg323
F2.1
sg324
I201
sg325
I100
sg326
I1
sg327
F70.0
sg328
I100
sg329
I1
sg330
I10
sg331
I30
sg332
F0.9
sg333
F6.0
s(dp565
g335
g21
(g25
S'\x00\x00\x00\x00\x00\x00\x00\x00'
p566
tp567
Rp568
sg339
g21
(g25
S'z\xa6{\xcaE\xf8\xcf?'
p569
tp570
Rp571
sg343
g21
(g25
S'\x80V}\xae\xb6b\xaf?'
p572
tp573
Rp574
stp575
a(I1491182613
(dp576
S'learn_rate'
p577
F0.003
sS'b'
p578
F0.0
sS'shuffle'
p579
I00
sS'f'
p580
F0.5
sS'reapeat_sequence'
p581
I100
sS'ham_dist_threshold'
p582
F0.01
sS'eps'
p583
F1.2
sS'N'
p584
I201
sS'nbr_patterns'
p585
I70
sS'initial_variance'
p586
I1
sS'theta'
p587
F70.0
sS'test_length'
p588
I100
sS'initial_mean'
p589
I1
sS'nb_iter'
p590
I10
sS'test_nb_iter'
p591
I30
sS'successful_storage_rate'
p592
F0.9
sS'gamma'
p593
F6.0
s(dp594
S'successful_storage'
p595
g21
(g25
S'\x00\x00\x00\x00\x00\x00\xf0?'
p596
tp597
Rp598
sS'avg_dist'
p599
g21
(g25
S'\x00\x00\x00\x00\x00\x00\x00\x00'
p600
tp601
Rp602
sS'err'
p603
g21
(g25
S'\x00\x00\x00\x00\x00\x00\xf0?'
p604
tp605
Rp606
stp607
a(I1491182704
(dp608
g577
F0.003
sg578
F0.0
sg579
I00
sg580
F0.5
sg581
I100
sg582
F0.01
sg583
F1.2
sg584
I201
sg585
I100
sg586
I1
sg587
F70.0
sg588
I100
sg589
I1
sg590
I10
sg591
I30
sg592
F0.9
sg593
F6.0
s(dp609
g595
g21
(g25
S'\\\x8f\xc2\xf5(\\\xef?'
p610
tp611
Rp612
sg599
g21
(g25
S'\x16\xe3\xd6\xc6!\xc9t?'
p613
tp614
Rp615
sg603
g21
(g25
S'\\\x8f\xc2\xf5(\\\xef?'
p616
tp617
Rp618
stp619
a(I1491182765
(dp620
g577
F0.003
sg578
F0.0
sg579
I00
sg580
F0.5
sg581
I100
sg582
F0.01
sg583
F1.5
sg584
I201
sg585
I70
sg586
I1
sg587
F70.0
sg588
I100
sg589
I1
sg590
I10
sg591
I30
sg592
F0.9
sg593
F6.0
s(dp621
g595
g21
(g25
S'\xb0\xf8\x8a\xaf\xf8\x8a\xef?'
p622
tp623
Rp624
sg599
g21
(g25
S'\xa2\xfe\xde0\xf3\x1fV?'
p625
tp626
Rp627
sg603
g21
(g25
S'\xb0\xf8\x8a\xaf\xf8\x8a\xef?'
p628
tp629
Rp630
stp631
a(I1491182857
(dp632
g577
F0.003
sg578
F0.0
sg579
I00
sg580
F0.5
sg581
I100
sg582
F0.01
sg583
F1.5
sg584
I201
sg585
I100
sg586
I1
sg587
F70.0
sg588
I100
sg589
I1
sg590
I10
sg591
I30
sg592
F0.9
sg593
F6.0
s(dp633
g595
g21
(g25
S'\xaeG\xe1z\x14\xae\xef?'
p634
tp635
Rp636
sg599
g21
(g25
S'\xbf.\xc9\xb3\xd7\xb6k?'
p637
tp638
Rp639
sg603
g21
(g25
S'\xaeG\xe1z\x14\xae\xef?'
p640
tp641
Rp642
stp643
a(I1491182925
(dp644
g577
F0.003
sg578
F0.0
sg579
I00
sg580
F0.5
sg581
I100
sg582
F0.01
sg583
F1.8
sg584
I201
sg585
I70
sg586
I1
sg587
F70.0
sg588
I100
sg589
I1
sg590
I10
sg591
I30
sg592
F0.9
sg593
F6.0
s(dp645
g595
g21
(g25
S'\x00\x00\x00\x00\x00\x00\xf0?'
p646
tp647
Rp648
sg599
g21
(g25
S'\x00\x00\x00\x00\x00\x00\x00\x00'
p649
tp650
Rp651
sg603
g21
(g25
S'\x00\x00\x00\x00\x00\x00\xf0?'
p652
tp653
Rp654
stp655
a(I1491183023
(dp656
g577
F0.003
sg578
F0.0
sg579
I00
sg580
F0.5
sg581
I100
sg582
F0.01
sg583
F1.8
sg584
I201
sg585
I100
sg586
I1
sg587
F70.0
sg588
I100
sg589
I1
sg590
I10
sg591
I30
sg592
F0.9
sg593
F6.0
s(dp657
g595
g21
(g25
S'\xaeG\xe1z\x14\xae\xef?'
p658
tp659
Rp660
sg599
g21
(g25
S'{3\xed\xd0\x1b\x1eQ?'
p661
tp662
Rp663
sg603
g21
(g25
S'\xaeG\xe1z\x14\xae\xef?'
p664
tp665
Rp666
stp667
a(I1491183093
(dp668
g577
F0.003
sg578
F0.0
sg579
I00
sg580
F0.5
sg581
I100
sg582
F0.01
sg583
F2.1
sg584
I201
sg585
I70
sg586
I1
sg587
F70.0
sg588
I100
sg589
I1
sg590
I10
sg591
I30
sg592
F0.9
sg593
F6.0
s(dp669
g595
g21
(g25
S'\x00\x00\x00\x00\x00\x00\xf0?'
p670
tp671
Rp672
sg599
g21
(g25
S'\x00\x00\x00\x00\x00\x00\x00\x00'
p673
tp674
Rp675
sg603
g21
(g25
S'\x00\x00\x00\x00\x00\x00\xf0?'
p676
tp677
Rp678
stp679
a(I1491183188
(dp680
g577
F0.003
sg578
F0.0
sg579
I00
sg580
F0.5
sg581
I100
sg582
F0.01
sg583
F2.1
sg584
I201
sg585
I100
sg586
I1
sg587
F70.0
sg588
I100
sg589
I1
sg590
I10
sg591
I30
sg592
F0.9
sg593
F6.0
s(dp681
g595
g21
(g25
S'q=\n\xd7\xa3p\xed?'
p682
tp683
Rp684
sg599
g21
(g25
S'\x90\xa83\xca\x1f\x90s?'
p685
tp686
Rp687
sg603
g21
(g25
S'q=\n\xd7\xa3p\xed?'
p688
tp689
Rp690
stp691
a(I1491183323
(dp692
S'learn_rate'
p693
F0.003
sS'b'
p694
F0.0
sS'shuffle'
p695
I00
sS'f'
p696
F0.5
sS'nbr_patterns'
p697
I130
sS'reapeat_sequence'
p698
I100
sS'ham_dist_threshold'
p699
F0.01
sS'eps'
p700
F1.2
sS'N'
p701
I201
sS'initial_mean'
p702
I1
sS'initial_variance'
p703
I1
sS'test_length'
p704
I100
sS'theta'
p705
F70.0
sS'nb_iter'
p706
I10
sS'test_nb_iter'
p707
I30
sS'successful_storage_rate'
p708
F0.9
sS'gamma'
p709
F6.0
s(dp710
S'successful_storage'
p711
g21
(g25
S'[\xa9\x95Z\xa9\x95\xea?'
p712
tp713
Rp714
sS'avg_dist'
p715
g21
(g25
S'Y\xe5\xcf\x9e_p\xb1?'
p716
tp717
Rp718
sS'err'
p719
g21
(g25
S'Z\xa9\x95Z\xa9\x95\xea?'
p720
tp721
Rp722
stp723
a(I1491183447
(dp724
g693
F0.003
sg694
F0.0
sg695
I00
sg696
F0.5
sg697
I130
sg698
I100
sg699
F0.01
sg700
F1.5
sg701
I201
sg702
I1
sg703
I1
sg704
I100
sg705
F70.0
sg706
I10
sg707
I30
sg708
F0.9
sg709
F6.0
s(dp725
g711
g21
(g25
S'\xec\xc4N\xec\xc4N\xec?'
p726
tp727
Rp728
sg715
g21
(g25
S'\xa5\xdb\x06\x12(\xab\xa9?'
p729
tp730
Rp731
sg719
g21
(g25
S'\xec\xc4N\xec\xc4N\xec?'
p732
tp733
Rp734
stp735
a(I1491183570
(dp736
g693
F0.003
sg694
F0.0
sg695
I00
sg696
F0.5
sg697
I130
sg698
I100
sg699
F0.01
sg700
F1.8
sg701
I201
sg702
I1
sg703
I1
sg704
I100
sg705
F70.0
sg706
I10
sg707
I30
sg708
F0.9
sg709
F6.0
s(dp737
g711
g21
(g25
S'\x18z\xa1\x17z\xa1\xa7?'
p738
tp739
Rp740
sg715
g21
(g25
S'\xd2\xb6\x9e|\xe8/\xdb?'
p741
tp742
Rp743
sg719
g21
(g25
S'\x10z\xa1\x17z\xa1\xa7?'
p744
tp745
Rp746
stp747
a(I1491183693
(dp748
g693
F0.003
sg694
F0.0
sg695
I00
sg696
F0.5
sg697
I130
sg698
I100
sg699
F0.01
sg700
F2.1
sg701
I201
sg702
I1
sg703
I1
sg704
I100
sg705
F70.0
sg706
I10
sg707
I30
sg708
F0.9
sg709
F6.0
s(dp749
g711
g21
(g25
S' \xf8\x81\x1f\xf8\x81\x9f?'
p750
tp751
Rp752
sg715
g21
(g25
S'\xa1\x81\xe8\xf6OW\xd8?'
p753
tp754
Rp755
sg719
g21
(g25
S' \xf8\x81\x1f\xf8\x81\x9f?'
p756
tp757
Rp758
stp759
a(I1491184012
(dp760
S'learn_rate'
p761
F0.003
sS'b'
p762
F0.0
sS'shuffle'
p763
I00
sS'f'
p764
F0.5
sS'reapeat_sequence'
p765
I100
sS'ham_dist_threshold'
p766
F0.01
sS'eps'
p767
F1.2
sS'N'
p768
I201
sS'initial_mean'
p769
I1
sS'nbr_patterns'
p770
I160
sS'initial_variance'
p771
I1
sS'test_length'
p772
I100
sS'theta'
p773
F70.0
sS'nb_iter'
p774
I10
sS'test_nb_iter'
p775
I30
sS'successful_storage_rate'
p776
F0.9
sS'gamma'
p777
F6.0
s(dp778
S'successful_storage'
p779
g21
(g25
S'ffffff\xd0?'
p780
tp781
Rp782
sS'avg_dist'
p783
g21
(g25
S'OF\x1c\xb5\xfd\x0c\xd7?'
p784
tp785
Rp786
sS'err'
p787
g21
(g25
S'ffffff\xd0?'
p788
tp789
Rp790
stp791
a(I1491184171
(dp792
g761
F0.003
sg762
F0.0
sg763
I00
sg764
F0.5
sg765
I100
sg766
F0.01
sg767
F1.5
sg768
I201
sg769
I1
sg770
I160
sg771
I1
sg772
I100
sg773
F70.0
sg774
I10
sg775
I30
sg776
F0.9
sg777
F6.0
s(dp793
g779
g21
(g25
S'\x00\x00\x00\x00\x00\x00\x00\x00'
p794
tp795
Rp796
sg783
g21
(g25
S'\x03D)\x16-\xab\xde?'
p797
tp798
Rp799
sg787
g21
(g25
S'\x00\x00\x00\x00\x00\x00\x00\x00'
p800
tp801
Rp802
stp803
a(I1491184327
(dp804
g761
F0.003
sg762
F0.0
sg763
I00
sg764
F0.5
sg765
I100
sg766
F0.01
sg767
F1.8
sg768
I201
sg769
I1
sg770
I160
sg771
I1
sg772
I100
sg773
F70.0
sg774
I10
sg775
I30
sg776
F0.9
sg777
F6.0
s(dp805
g779
g21
(g25
S'\xcd\xcc\xcc\xcc\xcc\xcc\xac?'
p806
tp807
Rp808
sg783
g21
(g25
S'u\x919\xd6\xb3v\xdc?'
p809
tp810
Rp811
sg787
g21
(g25
S'\xd0\xcc\xcc\xcc\xcc\xcc\xac?'
p812
tp813
Rp814
stp815
a(I1491184485
(dp816
g761
F0.003
sg762
F0.0
sg763
I00
sg764
F0.5
sg765
I100
sg766
F0.01
sg767
F2.1
sg768
I201
sg769
I1
sg770
I160
sg771
I1
sg772
I100
sg773
F70.0
sg774
I10
sg775
I30
sg776
F0.9
sg777
F6.0
s(dp817
g779
g21
(g25
S'\x9a\x99\x99\x99\x99\x99y?'
p818
tp819
Rp820
sg783
g21
(g25
S'f"=P9\xbb\xdd?'
p821
tp822
Rp823
sg787
g21
(g25
S'\x80\x99\x99\x99\x99\x99y?'
p824
tp825
Rp826
stp827
a(I1491184811
(dp828
S'learn_rate'
p829
F0.003
sS'b'
p830
F0.0
sS'shuffle'
p831
I00
sS'f'
p832
F0.5
sS'nbr_patterns'
p833
I130
sS'reapeat_sequence'
p834
I100
sS'ham_dist_threshold'
p835
F0.01
sS'eps'
p836
F0.6
sS'N'
p837
I201
sS'initial_mean'
p838
I1
sS'initial_variance'
p839
I1
sS'test_length'
p840
I100
sS'theta'
p841
F70.0
sS'nb_iter'
p842
I10
sS'test_nb_iter'
p843
I30
sS'successful_storage_rate'
p844
F0.9
sS'gamma'
p845
F6.0
s(dp846
S'successful_storage'
p847
g21
(g25
S'\x14;\xb1\x13;\xb1\xe3?'
p848
tp849
Rp850
sS'avg_dist'
p851
g21
(g25
S'\x0e\xdfH\xf16\xac\xc3?'
p852
tp853
Rp854
sS'err'
p855
g21
(g25
S'\x14;\xb1\x13;\xb1\xe3?'
p856
tp857
Rp858
stp859
a(I1491184962
(dp860
g829
F0.003
sg830
F0.0
sg831
I00
sg832
F0.5
sg833
I160
sg834
I100
sg835
F0.01
sg836
F0.6
sg837
I201
sg838
I1
sg839
I1
sg840
I100
sg841
F70.0
sg842
I10
sg843
I30
sg844
F0.9
sg845
F6.0
s(dp861
g847
g21
(g25
S'\x00\x00\x00\x00\x00\x00\xe6?'
p862
tp863
Rp864
sg851
g21
(g25
S'e\xc4Q\xdb\xcf\x10\xc2?'
p865
tp866
Rp867
sg855
g21
(g25
S'\x00\x00\x00\x00\x00\x00\xe6?'
p868
tp869
Rp870
stp871
a(I1491185090
(dp872
g829
F0.003
sg830
F0.0
sg831
I00
sg832
F0.5
sg833
I130
sg834
I100
sg835
F0.01
sg836
F0.9
sg837
I201
sg838
I1
sg839
I1
sg840
I100
sg841
F70.0
sg842
I10
sg843
I30
sg844
F0.9
sg845
F6.0
s(dp873
g847
g21
(g25
S'\x9e\xd8\x89\x9d\xd8\x89\xed?'
p874
tp875
Rp876
sg851
g21
(g25
S'\xba\xcc\xb0\xf9\xb1\x9d\xa0?'
p877
tp878
Rp879
sg855
g21
(g25
S'\x9e\xd8\x89\x9d\xd8\x89\xed?'
p880
tp881
Rp882
stp883
a(I1491185240
(dp884
g829
F0.003
sg830
F0.0
sg831
I00
sg832
F0.5
sg833
I160
sg834
I100
sg835
F0.01
sg836
F0.9
sg837
I201
sg838
I1
sg839
I1
sg840
I100
sg841
F70.0
sg842
I10
sg843
I30
sg844
F0.9
sg845
F6.0
s(dp885
g847
g21
(g25
S'\x9a\x99\x99\x99\x99\x99\x89?'
p886
tp887
Rp888
sg851
g21
(g25
S'k\xfb\x19\xc2^<\xdf?'
p889
tp890
Rp891
sg855
g21
(g25
S'\x80\x99\x99\x99\x99\x99\x89?'
p892
tp893
Rp894
stp895
a(I1491185524
(dp896
S'learn_rate'
p897
F0.003
sS'b'
p898
F0.0
sS'shuffle'
p899
I00
sS'f'
p900
F0.5
sS'reapeat_sequence'
p901
I100
sS'ham_dist_threshold'
p902
F0.01
sS'eps'
p903
F0.6
sS'N'
p904
I201
sS'initial_mean'
p905
I1
sS'nbr_patterns'
p906
I190
sS'initial_variance'
p907
I1
sS'test_length'
p908
I100
sS'theta'
p909
F70.0
sS'nb_iter'
p910
I10
sS'test_nb_iter'
p911
I30
sS'successful_storage_rate'
p912
F0.9
sS'gamma'
p913
F6.0
s(dp914
S'successful_storage'
p915
g21
(g25
S'\x0b\x84\x91v\xac@\xc8?'
p916
tp917
Rp918
sS'avg_dist'
p919
g21
(g25
S"\xc2\x12\xdf'\xee\xc4\xd9?"
p920
tp921
Rp922
sS'err'
p923
g21
(g25
S'\x0c\x84\x91v\xac@\xc8?'
p924
tp925
Rp926
stp927
a(I1491185775
(dp928
S'learn_rate'
p929
F0.003
sS'b'
p930
F0.0
sS'shuffle'
p931
I00
sS'f'
p932
F0.5
sS'nbr_patterns'
p933
I160
sS'reapeat_sequence'
p934
I100
sS'ham_dist_threshold'
p935
F0.01
sS'eps'
p936
F0.3
sS'N'
p937
I201
sS'initial_mean'
p938
I1
sS'initial_variance'
p939
I1
sS'test_length'
p940
I100
sS'theta'
p941
F70.0
sS'nb_iter'
p942
I10
sS'test_nb_iter'
p943
I30
sS'successful_storage_rate'
p944
F0.9
sS'gamma'
p945
F6.0
s(dp946
S'successful_storage'
p947
g21
(g25
S'\x00\x00\x00\x00\x00\x00\xd0?'
p948
tp949
Rp950
sS'avg_dist'
p951
g21
(g25
S'\xafu\xba4\xd5G\xd6?'
p952
tp953
Rp954
sS'err'
p955
g21
(g25
S'\x00\x00\x00\x00\x00\x00\xd0?'
p956
tp957
Rp958
stp959
a(I1491185962
(dp960
g929
F0.003
sg930
F0.0
sg931
I00
sg932
F0.5
sg933
I190
sg934
I100
sg935
F0.01
sg936
F0.3
sg937
I201
sg938
I1
sg939
I1
sg940
I100
sg941
F70.0
sg942
I10
sg943
I30
sg944
F0.9
sg945
F6.0
s(dp961
g947
g21
(g25
S'\xb2\x02a\xa4\x1d+\xc0?'
p962
tp963
Rp964
sg951
g21
(g25
S'\xcf\xd5lF\xbd6\xdb?'
p965
tp966
Rp967
sg955
g21
(g25
S'\xb0\x02a\xa4\x1d+\xc0?'
p968
tp969
Rp970
stp971
a(I1491186128
(dp972
S'learn_rate'
p973
F0.003
sS'b'
p974
F0.0
sS'shuffle'
p975
I00
sS'f'
p976
F0.5
sS'reapeat_sequence'
p977
I100
sS'ham_dist_threshold'
p978
F0.01
sS'eps'
p979
F0.3
sS'N'
p980
I201
sS'initial_mean'
p981
I1
sS'initial_variance'
p982
I1
sS'theta'
p983
F70.0
sS'test_length'
p984
I100
sS'nbr_patterns'
p985
I130
sS'nb_iter'
p986
I10
sS'test_nb_iter'
p987
I30
sS'successful_storage_rate'
p988
F0.9
sS'gamma'
p989
F6.0
s(dp990
S'successful_storage'
p991
g21
(g25
S'\xf8\x81\x1f\xf8\x81\x1f\xd8?'
p992
tp993
Rp994
sS'avg_dist'
p995
g21
(g25
S'p\xf6\xa7d7\x8d\xd1?'
p996
tp997
Rp998
sS'err'
p999
g21
(g25
S'\xf8\x81\x1f\xf8\x81\x1f\xd8?'
p1000
tp1001
Rp1002
stp1003
a(I1491186241
(dp1004
S'learn_rate'
p1005
F0.003
sS'b'
p1006
F0.0
sS'shuffle'
p1007
I00
sS'f'
p1008
F0.5
sS'reapeat_sequence'
p1009
I100
sS'ham_dist_threshold'
p1010
F0.01
sS'eps'
p1011
F0.3
sS'N'
p1012
I201
sS'initial_mean'
p1013
I1
sS'nbr_patterns'
p1014
I100
sS'initial_variance'
p1015
I1
sS'test_length'
p1016
I100
sS'theta'
p1017
F70.0
sS'nb_iter'
p1018
I10
sS'test_nb_iter'
p1019
I30
sS'successful_storage_rate'
p1020
F0.9
sS'gamma'
p1021
F6.0
s(dp1022
S'successful_storage'
p1023
g21
(g25
S'\xc3\xf5(\\\x8f\xc2\xd5?'
p1024
tp1025
Rp1026
sS'avg_dist'
p1027
g21
(g25
S'\xe6\x0f\xc8\t@\xb7\xd3?'
p1028
tp1029
Rp1030
sS'err'
p1031
g21
(g25
S'\xc2\xf5(\\\x8f\xc2\xd5?'
p1032
tp1033
Rp1034
stp1035
a(I1491186326
(dp1036
S'learn_rate'
p1037
F0.003
sS'b'
p1038
F0.0
sS'shuffle'
p1039
I00
sS'f'
p1040
F0.5
sS'reapeat_sequence'
p1041
I100
sS'ham_dist_threshold'
p1042
F0.01
sS'eps'
p1043
F0.3
sS'N'
p1044
I201
sS'nbr_patterns'
p1045
I70
sS'initial_variance'
p1046
I1
sS'theta'
p1047
F70.0
sS'test_length'
p1048
I100
sS'initial_mean'
p1049
I1
sS'nb_iter'
p1050
I10
sS'test_nb_iter'
p1051
I30
sS'successful_storage_rate'
p1052
F0.9
sS'gamma'
p1053
F6.0
s(dp1054
S'successful_storage'
p1055
g21
(g25
S'|\xc5W|\xc5W\xdc?'
p1056
tp1057
Rp1058
sS'avg_dist'
p1059
g21
(g25
S'\x97\xa4o\xcc\xcaA\xd0?'
p1060
tp1061
Rp1062
sS'err'
p1063
g21
(g25
S'|\xc5W|\xc5W\xdc?'
p1064
tp1065
Rp1066
stp1067
a(I1491186419
(dp1068
S'learn_rate'
p1069
F0.003
sS'b'
p1070
F0.0
sS'shuffle'
p1071
I00
sS'f'
p1072
F0.5
sS'nbr_patterns'
p1073
I10
sS'reapeat_sequence'
p1074
I100
sS'ham_dist_threshold'
p1075
F0.01
sS'eps'
p1076
F0.3
sS'N'
p1077
I201
sS'initial_mean'
p1078
I1
sS'initial_variance'
p1079
I1
sS'test_length'
p1080
I100
sS'theta'
p1081
F70.0
sS'nb_iter'
p1082
I10
sS'test_nb_iter'
p1083
I30
sS'successful_storage_rate'
p1084
F0.9
sS'gamma'
p1085
F6.0
s(dp1086
S'successful_storage'
p1087
g21
(g25
S'\x9a\x99\x99\x99\x99\x99\xd9?'
p1088
tp1089
Rp1090
sS'avg_dist'
p1091
g21
(g25
S'\x14c\x07\x0f9\xa0\xc7?'
p1092
tp1093
Rp1094
sS'err'
p1095
g21
(g25
S'\x9a\x99\x99\x99\x99\x99\xd9?'
p1096
tp1097
Rp1098
stp1099
a(I1491186436
(dp1100
g1069
F0.003
sg1070
F0.0
sg1071
I00
sg1072
F0.5
sg1073
I20
sg1074
I100
sg1075
F0.01
sg1076
F0.3
sg1077
I201
sg1078
I1
sg1079
I1
sg1080
I100
sg1081
F70.0
sg1082
I10
sg1083
I30
sg1084
F0.9
sg1085
F6.0
s(dp1101
g1087
g21
(g25
S'\x00\x00\x00\x00\x00\x00\xe0?'
p1102
tp1103
Rp1104
sg1091
g21
(g25
S'\xc0\xff\xe4\xd1\xe8f\xcc?'
p1105
tp1106
Rp1107
sg1095
g21
(g25
S'\x00\x00\x00\x00\x00\x00\xe0?'
p1108
tp1109
Rp1110
stp1111
a(I1491186474
(dp1112
g1069
F0.003
sg1070
F0.0
sg1071
I00
sg1072
F0.5
sg1073
I40
sg1074
I100
sg1075
F0.01
sg1076
F0.3
sg1077
I201
sg1078
I1
sg1079
I1
sg1080
I100
sg1081
F70.0
sg1082
I10
sg1083
I30
sg1084
F0.9
sg1085
F6.0
s(dp1113
g1087
g21
(g25
S'\x00\x00\x00\x00\x00\x00\xe0?'
p1114
tp1115
Rp1116
sg1091
g21
(g25
S'\x86R,ZV\xc1\xcd?'
p1117
tp1118
Rp1119
sg1095
g21
(g25
S'\x00\x00\x00\x00\x00\x00\xe0?'
p1120
tp1121
Rp1122
stp1123
a(I1491186548
(dp1124
S'learn_rate'
p1125
F0.003
sS'b'
p1126
F0.0
sS'shuffle'
p1127
I00
sS'f'
p1128
F0.5
sS'reapeat_sequence'
p1129
I100
sS'ham_dist_threshold'
p1130
F0.01
sS'eps'
p1131
F0.0
sS'N'
p1132
I201
sS'nbr_patterns'
p1133
I10
sS'initial_variance'
p1134
I1
sS'theta'
p1135
F70.0
sS'test_length'
p1136
I100
sS'initial_mean'
p1137
I1
sS'nb_iter'
p1138
I10
sS'test_nb_iter'
p1139
I30
sS'successful_storage_rate'
p1140
F0.9
sS'gamma'
p1141
F6.0
s(dp1142
S'successful_storage'
p1143
g21
(g25
S'\x9a\x99\x99\x99\x99\x99\xb9?'
p1144
tp1145
Rp1146
sS'avg_dist'
p1147
g21
(g25
S'\xdb\x80^!\xd1\x97\xdc?'
p1148
tp1149
Rp1150
sS'err'
p1151
g21
(g25
S'\x98\x99\x99\x99\x99\x99\xb9?'
p1152
tp1153
Rp1154
stp1155
a(I1491186565
(dp1156
g1125
F0.003
sg1126
F0.0
sg1127
I00
sg1128
F0.5
sg1129
I100
sg1130
F0.01
sg1131
F0.0
sg1132
I201
sg1133
I20
sg1134
I1
sg1135
F70.0
sg1136
I100
sg1137
I1
sg1138
I10
sg1139
I30
sg1140
F0.9
sg1141
F6.0
s(dp1157
g1143
g21
(g25
S'\x00\x00\x00\x00\x00\x00\x00\x00'
p1158
tp1159
Rp1160
sg1147
g21
(g25
S'\x12ph>\xd7\x1f\xdf?'
p1161
tp1162
Rp1163
sg1151
g21
(g25
S'\x00\x00\x00\x00\x00\x00\x00\x00'
p1164
tp1165
Rp1166
stp1167
a(I1491186602
(dp1168
g1125
F0.003
sg1126
F0.0
sg1127
I00
sg1128
F0.5
sg1129
I100
sg1130
F0.01
sg1131
F0.0
sg1132
I201
sg1133
I40
sg1134
I1
sg1135
F70.0
sg1136
I100
sg1137
I1
sg1138
I10
sg1139
I30
sg1140
F0.9
sg1141
F6.0
s(dp1169
g1143
g21
(g25
S'\x00\x00\x00\x00\x00\x00\x00\x00'
p1170
tp1171
Rp1172
sg1147
g21
(g25
S'\x1a\x12}\xc9mu\xdf?'
p1173
tp1174
Rp1175
sg1151
g21
(g25
S'\x00\x00\x00\x00\x00\x00\x00\x00'
p1176
tp1177
Rp1178
stp1179
a(I1491186625
(dp1180
S'learn_rate'
p1181
F0.003
sS'b'
p1182
F0.0
sS'shuffle'
p1183
I00
sS'f'
p1184
F0.5
sS'nbr_patterns'
p1185
I1
sS'reapeat_sequence'
p1186
I100
sS'ham_dist_threshold'
p1187
F0.01
sS'eps'
p1188
F0.0
sS'N'
p1189
I201
sS'initial_mean'
p1190
I1
sS'initial_variance'
p1191
I1
sS'test_length'
p1192
I100
sS'theta'
p1193
F70.0
sS'nb_iter'
p1194
I10
sS'test_nb_iter'
p1195
I30
sS'successful_storage_rate'
p1196
F0.9
sS'gamma'
p1197
F6.0
s(dp1198
S'successful_storage'
p1199
g21
(g25
S'\x00\x00\x00\x00\x00\x00\x00\x00'
p1200
tp1201
Rp1202
sS'avg_dist'
p1203
g21
(g25
S'\xa41\x91\x1e\xa8\x9c\xdd?'
p1204
tp1205
Rp1206
sS'err'
p1207
g21
(g25
S'\x00\x00\x00\x00\x00\x00\x00\x00'
p1208
tp1209
Rp1210
stp1211
a(I1491186627
(dp1212
g1181
F0.003
sg1182
F0.0
sg1183
I00
sg1184
F0.5
sg1185
I2
sg1186
I100
sg1187
F0.01
sg1188
F0.0
sg1189
I201
sg1190
I1
sg1191
I1
sg1192
I100
sg1193
F70.0
sg1194
I10
sg1195
I30
sg1196
F0.9
sg1197
F6.0
s(dp1213
g1199
g21
(g25
S'\x00\x00\x00\x00\x00\x00\x00\x00'
p1214
tp1215
Rp1216
sg1203
g21
(g25
S'\xa0rv\x0b\xbf\x1a\xc3?'
p1217
tp1218
Rp1219
sg1207
g21
(g25
S'\x00\x00\x00\x00\x00\x00\x00\x00'
p1220
tp1221
Rp1222
stp1223
a(I1491186631
(dp1224
g1181
F0.003
sg1182
F0.0
sg1183
I00
sg1184
F0.5
sg1185
I5
sg1186
I100
sg1187
F0.01
sg1188
F0.0
sg1189
I201
sg1190
I1
sg1191
I1
sg1192
I100
sg1193
F70.0
sg1194
I10
sg1195
I30
sg1196
F0.9
sg1197
F6.0
s(dp1225
g1199
g21
(g25
S'\x00\x00\x00\x00\x00\x00\x00\x00'
p1226
tp1227
Rp1228
sg1203
g21
(g25
S'\xd09\xf1\xe1\x8d\xbf\xd0?'
p1229
tp1230
Rp1231
sg1207
g21
(g25
S'\x00\x00\x00\x00\x00\x00\x00\x00'
p1232
tp1233
Rp1234
stp1235
a(I1491188754
(dp1236
S'learn_rate'
p1237
F0.003
sS'b'
p1238
F0.7
sS'shuffle'
p1239
I00
sS'f'
p1240
F0.5
sS'reapeat_sequence'
p1241
I100
sS'ham_dist_threshold'
p1242
F0.01
sS'eps'
p1243
F1.2
sS'N'
p1244
I201
sS'initial_mean'
p1245
I1
sS'initial_variance'
p1246
I1
sS'theta'
p1247
F70.0
sS'test_length'
p1248
I100
sS'nbr_patterns'
p1249
I10
sS'nb_iter'
p1250
I10
sS'test_nb_iter'
p1251
I30
sS'successful_storage_rate'
p1252
F0.9
sS'gamma'
p1253
F6.0
s(dp1254
S'successful_storage'
p1255
g21
(g25
S'\x00\x00\x00\x00\x00\x00\x00\x00'
p1256
tp1257
Rp1258
sS'avg_dist'
p1259
g21
(g25
S'F\x02Mr\x16A\xd4?'
p1260
tp1261
Rp1262
sS'err'
p1263
g21
(g25
S'\xc2\xca\xa1E\xb6\xf3\xd5?'
p1264
tp1265
Rp1266
stp1267
a(I1491188771
(dp1268
g1237
F0.003
sg1238
F0.7
sg1239
I00
sg1240
F0.5
sg1241
I100
sg1242
F0.01
sg1243
F1.2
sg1244
I201
sg1245
I1
sg1246
I1
sg1247
F70.0
sg1248
I100
sg1249
I20
sg1250
I10
sg1251
I30
sg1252
F0.9
sg1253
F6.0
s(dp1269
g1255
g21
(g25
S'\x00\x00\x00\x00\x00\x00\x00\x00'
p1270
tp1271
Rp1272
sg1259
g21
(g25
S'\xab\xe6\xfd5\t\x18\xdd?'
p1273
tp1274
Rp1275
sg1263
g21
(g25
S'\x80\xebQ\xb8\x1e\x85\xbb?'
p1276
tp1277
Rp1278
stp1279
a(I1491188804
(dp1280
g1237
F0.003
sg1238
F0.7
sg1239
I00
sg1240
F0.5
sg1241
I100
sg1242
F0.01
sg1243
F1.2
sg1244
I201
sg1245
I1
sg1246
I1
sg1247
F70.0
sg1248
I100
sg1249
I40
sg1250
I10
sg1251
I30
sg1252
F0.9
sg1253
F6.0
s(dp1281
g1255
g21
(g25
S'\x00\x00\x00\x00\x00\x00\x00\x00'
p1282
tp1283
Rp1284
sg1259
g21
(g25
S'\xe8\xdd)7R\x1f\xdc?'
p1285
tp1286
Rp1287
sg1263
g21
(g25
S'@\x87\x16\xd9\xce\xf7\x83?'
p1288
tp1289
Rp1290
stp1291
a(I1491188814
(dp1292
g1237
F0.003
sg1238
F0.7
sg1239
I00
sg1240
F0.5
sg1241
I100
sg1242
F0.01
sg1243
F1.5
sg1244
I201
sg1245
I1
sg1246
I1
sg1247
F70.0
sg1248
I100
sg1249
I10
sg1250
I10
sg1251
I30
sg1252
F0.9
sg1253
F6.0
s(dp1293
g1255
g21
(g25
S'\x00\x00\x00\x00\x00\x00\x00\x00'
p1294
tp1295
Rp1296
sg1259
g21
(g25
S'\xd2p\xc0\x85\x05\xba\xc3?'
p1297
tp1298
Rp1299
sg1263
g21
(g25
S'\xa6\x9b\xc4 \xb0r\xe4?'
p1300
tp1301
Rp1302
stp1303
a(I1491188832
(dp1304
g1237
F0.003
sg1238
F0.7
sg1239
I00
sg1240
F0.5
sg1241
I100
sg1242
F0.01
sg1243
F1.5
sg1244
I201
sg1245
I1
sg1246
I1
sg1247
F70.0
sg1248
I100
sg1249
I20
sg1250
I10
sg1251
I30
sg1252
F0.9
sg1253
F6.0
s(dp1305
g1255
g21
(g25
S'\x00\x00\x00\x00\x00\x00\x00\x00'
p1306
tp1307
Rp1308
sg1259
g21
(g25
S'\xb2\xf2\x91\x1c\x1c\x85\xd4?'
p1309
tp1310
Rp1311
sg1263
g21
(g25
S'\xa2E\xb6\xf3\xfd\xd4\xd0?'
p1312
tp1313
Rp1314
stp1315
a(I1491188868
(dp1316
g1237
F0.003
sg1238
F0.7
sg1239
I00
sg1240
F0.5
sg1241
I100
sg1242
F0.01
sg1243
F1.5
sg1244
I201
sg1245
I1
sg1246
I1
sg1247
F70.0
sg1248
I100
sg1249
I40
sg1250
I10
sg1251
I30
sg1252
F0.9
sg1253
F6.0
s(dp1317
g1255
g21
(g25
S'\x00\x00\x00\x00\x00\x00\x00\x00'
p1318
tp1319
Rp1320
sg1259
g21
(g25
S'b\xd2x\x96\x10\xd4\xd9?'
p1321
tp1322
Rp1323
sg1263
g21
(g25
S'\xc0\x1e\x85\xebQ\xb8\x9e?'
p1324
tp1325
Rp1326
stp1327
a(I1491188879
(dp1328
g1237
F0.003
sg1238
F0.7
sg1239
I00
sg1240
F0.5
sg1241
I100
sg1242
F0.01
sg1243
F1.8
sg1244
I201
sg1245
I1
sg1246
I1
sg1247
F70.0
sg1248
I100
sg1249
I10
sg1250
I10
sg1251
I30
sg1252
F0.9
sg1253
F6.0
s(dp1329
g1255
g21
(g25
S'\x9a\x99\x99\x99\x99\x99\xb9?'
p1330
tp1331
Rp1332
sg1259
g21
(g25
S'\x88Z\xaf\xce\xc7\xee\xc1?'
p1333
tp1334
Rp1335
sg1263
g21
(g25
S'\x0c\x02+\x87\x16\xd9\xe6?'
p1336
tp1337
Rp1338
stp1339
a(I1491188897
(dp1340
g1237
F0.003
sg1238
F0.7
sg1239
I00
sg1240
F0.5
sg1241
I100
sg1242
F0.01
sg1243
F1.8
sg1244
I201
sg1245
I1
sg1246
I1
sg1247
F70.0
sg1248
I100
sg1249
I20
sg1250
I10
sg1251
I30
sg1252
F0.9
sg1253
F6.0
s(dp1341
g1255
g21
(g25
S'\x00\x00\x00\x00\x00\x00\x00\x00'
p1342
tp1343
Rp1344
sg1259
g21
(g25
S'\xfe\x0ca/\x9e\x7f\xcf?'
p1345
tp1346
Rp1347
sg1263
g21
(g25
S'\xecQ\xb8\x1e\x85\xeb\xd9?'
p1348
tp1349
Rp1350
stp1351
a(I1491188936
(dp1352
g1237
F0.003
sg1238
F0.7
sg1239
I00
sg1240
F0.5
sg1241
I100
sg1242
F0.01
sg1243
F1.8
sg1244
I201
sg1245
I1
sg1246
I1
sg1247
F70.0
sg1248
I100
sg1249
I40
sg1250
I10
sg1251
I30
sg1252
F0.9
sg1253
F6.0
s(dp1353
g1255
g21
(g25
S'\x00\x00\x00\x00\x00\x00\x00\x00'
p1354
tp1355
Rp1356
sg1259
g21
(g25
S'\x12\xcd:\x11Av\xd4?'
p1357
tp1358
Rp1359
sg1263
g21
(g25
S' X9\xb4\xc8v\xae?'
p1360
tp1361
Rp1362
stp1363
a(I1491188945
(dp1364
g1237
F0.003
sg1238
F0.7
sg1239
I00
sg1240
F0.5
sg1241
I100
sg1242
F0.01
sg1243
F2.1
sg1244
I201
sg1245
I1
sg1246
I1
sg1247
F70.0
sg1248
I100
sg1249
I10
sg1250
I10
sg1251
I30
sg1252
F0.9
sg1253
F6.0
s(dp1365
g1255
g21
(g25
S'\x9a\x99\x99\x99\x99\x99\xc9?'
p1366
tp1367
Rp1368
sg1259
g21
(g25
S'\xb3P\xd0\xa7\xe2?\xaa?'
p1369
tp1370
Rp1371
sg1263
g21
(g25
S'\xaa\xf1\xd2Mb\x10\xec?'
p1372
tp1373
Rp1374
stp1375
a(I1491188964
(dp1376
g1237
F0.003
sg1238
F0.7
sg1239
I00
sg1240
F0.5
sg1241
I100
sg1242
F0.01
sg1243
F2.1
sg1244
I201
sg1245
I1
sg1246
I1
sg1247
F70.0
sg1248
I100
sg1249
I20
sg1250
I10
sg1251
I30
sg1252
F0.9
sg1253
F6.0
s(dp1377
g1255
g21
(g25
S'\x00\x00\x00\x00\x00\x00\x00\x00'
p1378
tp1379
Rp1380
sg1259
g21
(g25
S'\x9c.\xfa\xde4_\xc8?'
p1381
tp1382
Rp1383
sg1263
g21
(g25
S'\x97n\x12\x83\xc0\xca\xe1?'
p1384
tp1385
Rp1386
stp1387
a(I1491189002
(dp1388
g1237
F0.003
sg1238
F0.7
sg1239
I00
sg1240
F0.5
sg1241
I100
sg1242
F0.01
sg1243
F2.1
sg1244
I201
sg1245
I1
sg1246
I1
sg1247
F70.0
sg1248
I100
sg1249
I40
sg1250
I10
sg1251
I30
sg1252
F0.9
sg1253
F6.0
s(dp1389
g1255
g21
(g25
S'\x00\x00\x00\x00\x00\x00\x00\x00'
p1390
tp1391
Rp1392
sg1259
g21
(g25
S'6\xad\xb8w\x92\xa5\xd4?'
p1393
tp1394
Rp1395
sg1263
g21
(g25
S'h\xe5\xd0"\xdb\xf9\xbe?'
p1396
tp1397
Rp1398
stp1399
a(I1491189029
(dp1400
S'learn_rate'
p1401
F0.003
sS'b'
p1402
F0.7
sS'shuffle'
p1403
I00
sS'f'
p1404
F0.5
sS'reapeat_sequence'
p1405
I100
sS'ham_dist_threshold'
p1406
F0.01
sS'eps'
p1407
F1.2
sS'N'
p1408
I201
sS'initial_mean'
p1409
I1
sS'nbr_patterns'
p1410
I1
sS'initial_variance'
p1411
I1
sS'test_length'
p1412
I100
sS'theta'
p1413
F70.0
sS'nb_iter'
p1414
I10
sS'test_nb_iter'
p1415
I30
sS'successful_storage_rate'
p1416
F0.9
sS'gamma'
p1417
F6.0
s(dp1418
S'successful_storage'
p1419
g21
(g25
S'\x00\x00\x00\x00\x00\x00\xf0?'
p1420
tp1421
Rp1422
sS'avg_dist'
p1423
g21
(g25
S'\x00\x00\x00\x00\x00\x00\x00\x00'
p1424
tp1425
Rp1426
sS'err'
p1427
g21
(g25
S'\x00\x00\x00\x00\x00\x00\xf0?'
p1428
tp1429
Rp1430
stp1431
a(I1491189031
(dp1432
g1401
F0.003
sg1402
F0.7
sg1403
I00
sg1404
F0.5
sg1405
I100
sg1406
F0.01
sg1407
F1.2
sg1408
I201
sg1409
I1
sg1410
I2
sg1411
I1
sg1412
I100
sg1413
F70.0
sg1414
I10
sg1415
I30
sg1416
F0.9
sg1417
F6.0
s(dp1433
g1419
g21
(g25
S'\x00\x00\x00\x00\x00\x00\xf0?'
p1434
tp1435
Rp1436
sg1423
g21
(g25
S'\x00\x00\x00\x00\x00\x00\x00\x00'
p1437
tp1438
Rp1439
sg1427
g21
(g25
S'\x00\x00\x00\x00\x00\x00\xf0?'
p1440
tp1441
Rp1442
stp1443
a(I1491189035
(dp1444
g1401
F0.003
sg1402
F0.7
sg1403
I00
sg1404
F0.5
sg1405
I100
sg1406
F0.01
sg1407
F1.2
sg1408
I201
sg1409
I1
sg1410
I5
sg1411
I1
sg1412
I100
sg1413
F70.0
sg1414
I10
sg1415
I30
sg1416
F0.9
sg1417
F6.0
s(dp1445
g1419
g21
(g25
S'\x9a\x99\x99\x99\x99\x99\xc9?'
p1446
tp1447
Rp1448
sg1423
g21
(g25
S'\n\x90\xce\xe3\xe2\xb4\xcb?'
p1449
tp1450
Rp1451
sg1427
g21
(g25
S'\x9e\xef\xa7\xc6K7\xe1?'
p1452
tp1453
Rp1454
stp1455
a(I1491189036
(dp1456
g1401
F0.003
sg1402
F0.7
sg1403
I00
sg1404
F0.5
sg1405
I100
sg1406
F0.01
sg1407
F1.5
sg1408
I201
sg1409
I1
sg1410
I1
sg1411
I1
sg1412
I100
sg1413
F70.0
sg1414
I10
sg1415
I30
sg1416
F0.9
sg1417
F6.0
s(dp1457
g1419
g21
(g25
S'\x00\x00\x00\x00\x00\x00\xf0?'
p1458
tp1459
Rp1460
sg1423
g21
(g25
S'\x00\x00\x00\x00\x00\x00\x00\x00'
p1461
tp1462
Rp1463
sg1427
g21
(g25
S'\x00\x00\x00\x00\x00\x00\xf0?'
p1464
tp1465
Rp1466
stp1467
a(I1491189037
(dp1468
g1401
F0.003
sg1402
F0.7
sg1403
I00
sg1404
F0.5
sg1405
I100
sg1406
F0.01
sg1407
F1.5
sg1408
I201
sg1409
I1
sg1410
I2
sg1411
I1
sg1412
I100
sg1413
F70.0
sg1414
I10
sg1415
I30
sg1416
F0.9
sg1417
F6.0
s(dp1469
g1419
g21
(g25
S'\x00\x00\x00\x00\x00\x00\xf0?'
p1470
tp1471
Rp1472
sg1423
g21
(g25
S'\x00\x00\x00\x00\x00\x00\x00\x00'
p1473
tp1474
Rp1475
sg1427
g21
(g25
S'\x00\x00\x00\x00\x00\x00\xf0?'
p1476
tp1477
Rp1478
stp1479
a(I1491189041
(dp1480
g1401
F0.003
sg1402
F0.7
sg1403
I00
sg1404
F0.5
sg1405
I100
sg1406
F0.01
sg1407
F1.5
sg1408
I201
sg1409
I1
sg1410
I5
sg1411
I1
sg1412
I100
sg1413
F70.0
sg1414
I10
sg1415
I30
sg1416
F0.9
sg1417
F6.0
s(dp1481
g1419
g21
(g25
S'\x9a\x99\x99\x99\x99\x99\xc9?'
p1482
tp1483
Rp1484
sg1423
g21
(g25
S'\xae}\xea\x92\xe9d\xc0?'
p1485
tp1486
Rp1487
sg1427
g21
(g25
S'\x04V\x0e-\xb2\x9d\xe7?'
p1488
tp1489
Rp1490
stp1491
a(I1491189042
(dp1492
g1401
F0.003
sg1402
F0.7
sg1403
I00
sg1404
F0.5
sg1405
I100
sg1406
F0.01
sg1407
F1.8
sg1408
I201
sg1409
I1
sg1410
I1
sg1411
I1
sg1412
I100
sg1413
F70.0
sg1414
I10
sg1415
I30
sg1416
F0.9
sg1417
F6.0
s(dp1493
g1419
g21
(g25
S'\x00\x00\x00\x00\x00\x00\xf0?'
p1494
tp1495
Rp1496
sg1423
g21
(g25
S'\x00\x00\x00\x00\x00\x00\x00\x00'
p1497
tp1498
Rp1499
sg1427
g21
(g25
S'\x00\x00\x00\x00\x00\x00\xf0?'
p1500
tp1501
Rp1502
stp1503
a(I1491189044
(dp1504
g1401
F0.003
sg1402
F0.7
sg1403
I00
sg1404
F0.5
sg1405
I100
sg1406
F0.01
sg1407
F1.8
sg1408
I201
sg1409
I1
sg1410
I2
sg1411
I1
sg1412
I100
sg1413
F70.0
sg1414
I10
sg1415
I30
sg1416
F0.9
sg1417
F6.0
s(dp1505
g1419
g21
(g25
S'\x00\x00\x00\x00\x00\x00\xf0?'
p1506
tp1507
Rp1508
sg1423
g21
(g25
S'\\Yf\xc7\xf6\x94d?'
p1509
tp1510
Rp1511
sg1427
g21
(g25
S'\xd7\xa3p=\n\xd7\xef?'
p1512
tp1513
Rp1514
stp1515
a(I1491189048
(dp1516
g1401
F0.003
sg1402
F0.7
sg1403
I00
sg1404
F0.5
sg1405
I100
sg1406
F0.01
sg1407
F1.8
sg1408
I201
sg1409
I1
sg1410
I5
sg1411
I1
sg1412
I100
sg1413
F70.0
sg1414
I10
sg1415
I30
sg1416
F0.9
sg1417
F6.0
s(dp1517
g1419
g21
(g25
S'\x9a\x99\x99\x99\x99\x99\xd9?'
p1518
tp1519
Rp1520
sg1423
g21
(g25
S'\x900\xe7\x86\xa8\x94\xba?'
p1521
tp1522
Rp1523
sg1427
g21
(g25
S'\xa0\x1a/\xdd$\x06\xe9?'
p1524
tp1525
Rp1526
stp1527
a(I1491189049
(dp1528
g1401
F0.003
sg1402
F0.7
sg1403
I00
sg1404
F0.5
sg1405
I100
sg1406
F0.01
sg1407
F2.1
sg1408
I201
sg1409
I1
sg1410
I1
sg1411
I1
sg1412
I100
sg1413
F70.0
sg1414
I10
sg1415
I30
sg1416
F0.9
sg1417
F6.0
s(dp1529
g1419
g21
(g25
S'\x00\x00\x00\x00\x00\x00\xf0?'
p1530
tp1531
Rp1532
sg1423
g21
(g25
S'\x00\x00\x00\x00\x00\x00\x00\x00'
p1533
tp1534
Rp1535
sg1427
g21
(g25
S'\x00\x00\x00\x00\x00\x00\xf0?'
p1536
tp1537
Rp1538
stp1539
a(I1491189051
(dp1540
g1401
F0.003
sg1402
F0.7
sg1403
I00
sg1404
F0.5
sg1405
I100
sg1406
F0.01
sg1407
F2.1
sg1408
I201
sg1409
I1
sg1410
I2
sg1411
I1
sg1412
I100
sg1413
F70.0
sg1414
I10
sg1415
I30
sg1416
F0.9
sg1417
F6.0
s(dp1541
g1419
g21
(g25
S'\x00\x00\x00\x00\x00\x00\xf0?'
p1542
tp1543
Rp1544
sg1423
g21
(g25
S'\xcc\xf7\x00\xcdH\x8bb?'
p1545
tp1546
Rp1547
sg1427
g21
(g25
S'\xd7\xa3p=\n\xd7\xef?'
p1548
tp1549
Rp1550
stp1551
a(I1491189055
(dp1552
g1401
F0.003
sg1402
F0.7
sg1403
I00
sg1404
F0.5
sg1405
I100
sg1406
F0.01
sg1407
F2.1
sg1408
I201
sg1409
I1
sg1410
I5
sg1411
I1
sg1412
I100
sg1413
F70.0
sg1414
I10
sg1415
I30
sg1416
F0.9
sg1417
F6.0
s(dp1553
g1419
g21
(g25
S'333333\xe3?'
p1554
tp1555
Rp1556
sg1423
g21
(g25
S'\xb2\xe2\x8b39*\xa0?'
p1557
tp1558
Rp1559
sg1427
g21
(g25
S'\xc3\xf5(\\\x8f\xc2\xed?'
p1560
tp1561
Rp1562
stp1563
a(I1491189625
(dp1564
S'learn_rate'
p1565
F0.003
sS'b'
p1566
F0.35
sS'shuffle'
p1567
I00
sS'f'
p1568
F0.5
sS'reapeat_sequence'
p1569
I100
sS'ham_dist_threshold'
p1570
F0.01
sS'eps'
p1571
F1.2
sS'N'
p1572
I201
sS'nbr_patterns'
p1573
I10
sS'initial_variance'
p1574
I1
sS'theta'
p1575
F70.0
sS'test_length'
p1576
I100
sS'initial_mean'
p1577
I1
sS'nb_iter'
p1578
I10
sS'test_nb_iter'
p1579
I30
sS'successful_storage_rate'
p1580
F0.9
sS'gamma'
p1581
F6.0
s(dp1582
S'successful_storage'
p1583
g21
(g25
S'ffffff\xe6?'
p1584
tp1585
Rp1586
sS'avg_dist'
p1587
g21
(g25
S'\xee\xe71\x06 \x05\x95?'
p1588
tp1589
Rp1590
sS'err'
p1591
g21
(g25
S'\x00\x00\x00\x00\x00\x00\xec?'
p1592
tp1593
Rp1594
stp1595
a(I1491189641
(dp1596
g1565
F0.003
sg1566
F0.35
sg1567
I00
sg1568
F0.5
sg1569
I100
sg1570
F0.01
sg1571
F1.2
sg1572
I201
sg1573
I20
sg1574
I1
sg1575
F70.0
sg1576
I100
sg1577
I1
sg1578
I10
sg1579
I30
sg1580
F0.9
sg1581
F6.0
s(dp1597
g1583
g21
(g25
S'ffffff\xd6?'
p1598
tp1599
Rp1600
sg1587
g21
(g25
S'\x06\x1f?\x89:\xa3\xbc?'
p1601
tp1602
Rp1603
sg1591
g21
(g25
S'\xaeG\xe1z\x14\xae\xe7?'
p1604
tp1605
Rp1606
stp1607
a(I1491189674
(dp1608
g1565
F0.003
sg1566
F0.35
sg1567
I00
sg1568
F0.5
sg1569
I100
sg1570
F0.01
sg1571
F1.2
sg1572
I201
sg1573
I40
sg1574
I1
sg1575
F70.0
sg1576
I100
sg1577
I1
sg1578
I10
sg1579
I30
sg1580
F0.9
sg1581
F6.0
s(dp1609
g1583
g21
(g25
S'\x00\x00\x00\x00\x00\x00\x00\x00'
p1610
tp1611
Rp1612
sg1587
g21
(g25
S'\xc0\xbd\xed\xff\xbac\xd0?'
p1613
tp1614
Rp1615
sg1591
g21
(g25
S'$\xdb\xf9~j\xbc\xd4?'
p1616
tp1617
Rp1618
stp1619
a(I1491189740
(dp1620
g1565
F0.003
sg1566
F0.35
sg1567
I00
sg1568
F0.5
sg1569
I100
sg1570
F0.01
sg1571
F1.2
sg1572
I201
sg1573
I70
sg1574
I1
sg1575
F70.0
sg1576
I100
sg1577
I1
sg1578
I10
sg1579
I30
sg1580
F0.9
sg1581
F6.0
s(dp1621
g1583
g21
(g25
S'\x00\x00\x00\x00\x00\x00\x00\x00'
p1622
tp1623
Rp1624
sg1587
g21
(g25
S'\x0cxG\xbc>\x8c\xd6?'
p1625
tp1626
Rp1627
sg1591
g21
(g25
S'\xa0\xa94\xe4\xdcg\x97?'
p1628
tp1629
Rp1630
stp1631
a(I1491189750
(dp1632
g1565
F0.003
sg1566
F0.35
sg1567
I00
sg1568
F0.5
sg1569
I100
sg1570
F0.01
sg1571
F1.5
sg1572
I201
sg1573
I10
sg1574
I1
sg1575
F70.0
sg1576
I100
sg1577
I1
sg1578
I10
sg1579
I30
sg1580
F0.9
sg1581
F6.0
s(dp1633
g1583
g21
(g25
S'\x00\x00\x00\x00\x00\x00\xf0?'
p1634
tp1635
Rp1636
sg1587
g21
(g25
S'\x1bm\xbc\xc7\xa9ud?'
p1637
tp1638
Rp1639
sg1591
g21
(g25
S'\x83\xc0\xca\xa1E\xb6\xef?'
p1640
tp1641
Rp1642
stp1643
a(I1491189770
(dp1644
g1565
F0.003
sg1566
F0.35
sg1567
I00
sg1568
F0.5
sg1569
I100
sg1570
F0.01
sg1571
F1.5
sg1572
I201
sg1573
I20
sg1574
I1
sg1575
F70.0
sg1576
I100
sg1577
I1
sg1578
I10
sg1579
I30
sg1580
F0.9
sg1581
F6.0
s(dp1645
g1583
g21
(g25
S'ffffff\xee?'
p1646
tp1647
Rp1648
sg1587
g21
(g25
S'\xfd\xec\x01G{\xb9t?'
p1649
tp1650
Rp1651
sg1591
g21
(g25
S'\x9c\xc4 \xb0rh\xef?'
p1652
tp1653
Rp1654
stp1655
a(I1491189810
(dp1656
g1565
F0.003
sg1566
F0.35
sg1567
I00
sg1568
F0.5
sg1569
I100
sg1570
F0.01
sg1571
F1.5
sg1572
I201
sg1573
I40
sg1574
I1
sg1575
F70.0
sg1576
I100
sg1577
I1
sg1578
I10
sg1579
I30
sg1580
F0.9
sg1581
F6.0
s(dp1657
g1583
g21
(g25
S'333333\xd3?'
p1658
tp1659
Rp1660
sg1587
g21
(g25
S'rI\xf8\x90\xfc\xbc\xac?'
p1661
tp1662
Rp1663
sg1591
g21
(g25
S'7\x89A`\xe5\xd0\xe8?'
p1664
tp1665
Rp1666
stp1667
a(I1491189876
(dp1668
g1565
F0.003
sg1566
F0.35
sg1567
I00
sg1568
F0.5
sg1569
I100
sg1570
F0.01
sg1571
F1.5
sg1572
I201
sg1573
I70
sg1574
I1
sg1575
F70.0
sg1576
I100
sg1577
I1
sg1578
I10
sg1579
I30
sg1580
F0.9
sg1581
F6.0
s(dp1669
g1583
g21
(g25
S'\x00\x00\x00\x00\x00\x00\x00\x00'
p1670
tp1671
Rp1672
sg1587
g21
(g25
S'l\xd5j\xc4\xa1\xa0\xd4?'
p1673
tp1674
Rp1675
sg1591
g21
(g25
S'\x90`\xa2\xbf\x93\xd5\xb2?'
p1676
tp1677
Rp1678
stp1679
a(I1491189884
(dp1680
g1565
F0.003
sg1566
F0.35
sg1567
I00
sg1568
F0.5
sg1569
I100
sg1570
F0.01
sg1571
F1.8
sg1572
I201
sg1573
I10
sg1574
I1
sg1575
F70.0
sg1576
I100
sg1577
I1
sg1578
I10
sg1579
I30
sg1580
F0.9
sg1581
F6.0
s(dp1681
g1583
g21
(g25
S'\x00\x00\x00\x00\x00\x00\xf0?'
p1682
tp1683
Rp1684
sg1587
g21
(g25
S'\x00\x00\x00\x00\x00\x00\x00\x00'
p1685
tp1686
Rp1687
sg1591
g21
(g25
S'\x00\x00\x00\x00\x00\x00\xf0?'
p1688
tp1689
Rp1690
stp1691
a(I1491189906
(dp1692
g1565
F0.003
sg1566
F0.35
sg1567
I00
sg1568
F0.5
sg1569
I100
sg1570
F0.01
sg1571
F1.8
sg1572
I201
sg1573
I20
sg1574
I1
sg1575
F70.0
sg1576
I100
sg1577
I1
sg1578
I10
sg1579
I30
sg1580
F0.9
sg1581
F6.0
s(dp1693
g1583
g21
(g25
S'\x00\x00\x00\x00\x00\x00\xf0?'
p1694
tp1695
Rp1696
sg1587
g21
(g25
S'%E&\xc4\x89\xc3E?'
p1697
tp1698
Rp1699
sg1591
g21
(g25
S'\xc1\xca\xa1E\xb6\xf3\xef?'
p1700
tp1701
Rp1702
stp1703
a(I1491189945
(dp1704
g1565
F0.003
sg1566
F0.35
sg1567
I00
sg1568
F0.5
sg1569
I100
sg1570
F0.01
sg1571
F1.8
sg1572
I201
sg1573
I40
sg1574
I1
sg1575
F70.0
sg1576
I100
sg1577
I1
sg1578
I10
sg1579
I30
sg1580
F0.9
sg1581
F6.0
s(dp1705
g1583
g21
(g25
S'\x9a\x99\x99\x99\x99\x99\xed?'
p1706
tp1707
Rp1708
sg1587
g21
(g25
S'\x96\xc0\x0f>\xd1(\x82?'
p1709
tp1710
Rp1711
sg1591
g21
(g25
S'P\x8d\x97n\x12\x83\xee?'
p1712
tp1713
Rp1714
stp1715
a(I1491190010
(dp1716
g1565
F0.003
sg1566
F0.35
sg1567
I00
sg1568
F0.5
sg1569
I100
sg1570
F0.01
sg1571
F1.8
sg1572
I201
sg1573
I70
sg1574
I1
sg1575
F70.0
sg1576
I100
sg1577
I1
sg1578
I10
sg1579
I30
sg1580
F0.9
sg1581
F6.0
s(dp1717
g1583
g21
(g25
S'\x00\x00\x00\x00\x00\x00\x00\x00'
p1718
tp1719
Rp1720
sg1587
g21
(g25
S'`\xe9<\x83\x9a\xc8\xd5?'
p1721
tp1722
Rp1723
sg1591
g21
(g25
S'\x00\x80j\xbct\x93h?'
p1724
tp1725
Rp1726
stp1727
a(I1491190018
(dp1728
g1565
F0.003
sg1566
F0.35
sg1567
I00
sg1568
F0.5
sg1569
I100
sg1570
F0.01
sg1571
F2.1
sg1572
I201
sg1573
I10
sg1574
I1
sg1575
F70.0
sg1576
I100
sg1577
I1
sg1578
I10
sg1579
I30
sg1580
F0.9
sg1581
F6.0
s(dp1729
g1583
g21
(g25
S'\x00\x00\x00\x00\x00\x00\xf0?'
p1730
tp1731
Rp1732
sg1587
g21
(g25
S'\x00\x00\x00\x00\x00\x00\x00\x00'
p1733
tp1734
Rp1735
sg1591
g21
(g25
S'\x00\x00\x00\x00\x00\x00\xf0?'
p1736
tp1737
Rp1738
stp1739
a(I1491190037
(dp1740
g1565
F0.003
sg1566
F0.35
sg1567
I00
sg1568
F0.5
sg1569
I100
sg1570
F0.01
sg1571
F2.1
sg1572
I201
sg1573
I20
sg1574
I1
sg1575
F70.0
sg1576
I100
sg1577
I1
sg1578
I10
sg1579
I30
sg1580
F0.9
sg1581
F6.0
s(dp1741
g1583
g21
(g25
S'\x00\x00\x00\x00\x00\x00\xf0?'
p1742
tp1743
Rp1744
sg1587
g21
(g25
S'\x00\x00\x00\x00\x00\x00\x00\x00'
p1745
tp1746
Rp1747
sg1591
g21
(g25
S'\x00\x00\x00\x00\x00\x00\xf0?'
p1748
tp1749
Rp1750
stp1751
a(I1491190076
(dp1752
g1565
F0.003
sg1566
F0.35
sg1567
I00
sg1568
F0.5
sg1569
I100
sg1570
F0.01
sg1571
F2.1
sg1572
I201
sg1573
I40
sg1574
I1
sg1575
F70.0
sg1576
I100
sg1577
I1
sg1578
I10
sg1579
I30
sg1580
F0.9
sg1581
F6.0
s(dp1753
g1583
g21
(g25
S'333333\xef?'
p1754
tp1755
Rp1756
sg1587
g21
(g25
S'\xa0AK\xae\x16\xb6M?'
p1757
tp1758
Rp1759
sg1591
g21
(g25
S'\xaeG\xe1z\x14\xae\xef?'
p1760
tp1761
Rp1762
stp1763
a(I1491190146
(dp1764
g1565
F0.003
sg1566
F0.35
sg1567
I00
sg1568
F0.5
sg1569
I100
sg1570
F0.01
sg1571
F2.1
sg1572
I201
sg1573
I70
sg1574
I1
sg1575
F70.0
sg1576
I100
sg1577
I1
sg1578
I10
sg1579
I30
sg1580
F0.9
sg1581
F6.0
s(dp1765
g1583
g21
(g25
S'\x00\x00\x00\x00\x00\x00\x00\x00'
p1766
tp1767
Rp1768
sg1587
g21
(g25
S'!\x164h\xc9\xd5\xc2?'
p1769
tp1770
Rp1771
sg1591
g21
(g25
S'\xf0\xf6\x1c\x17S\xac\xd9?'
p1772
tp1773
Rp1774
stp1775
a(I1491190605
(dp1776
S'learn_rate'
p1777
F0.003
sS'b'
p1778
F0.35
sS'shuffle'
p1779
I00
sS'f'
p1780
F0.5
sS'nbr_patterns'
p1781
I40
sS'reapeat_sequence'
p1782
I100
sS'ham_dist_threshold'
p1783
F0.01
sS'eps'
p1784
F2.4
sS'N'
p1785
I201
sS'initial_mean'
p1786
I1
sS'initial_variance'
p1787
I1
sS'test_length'
p1788
I100
sS'theta'
p1789
F70.0
sS'nb_iter'
p1790
I10
sS'test_nb_iter'
p1791
I30
sS'successful_storage_rate'
p1792
F0.9
sS'gamma'
p1793
F6.0
s(dp1794
S'successful_storage'
p1795
g21
(g25
S'\x00\x00\x00\x00\x00\x00\xf0?'
p1796
tp1797
Rp1798
sS'avg_dist'
p1799
g21
(g25
S'j\x1d\x05\xc2\xc6\x89V?'
p1800
tp1801
Rp1802
sS'err'
p1803
g21
(g25
S'\x0c\x02+\x87\x16\xd9\xef?'
p1804
tp1805
Rp1806
stp1807
a(I1491190664
(dp1808
g1777
F0.003
sg1778
F0.35
sg1779
I00
sg1780
F0.5
sg1781
I70
sg1782
I100
sg1783
F0.01
sg1784
F2.4
sg1785
I201
sg1786
I1
sg1787
I1
sg1788
I100
sg1789
F70.0
sg1790
I10
sg1791
I30
sg1792
F0.9
sg1793
F6.0
s(dp1809
g1795
g21
(g25
S'\x00\x00\x00\x00\x00\x00\x00\x00'
p1810
tp1811
Rp1812
sg1799
g21
(g25
S'&\x08\x0bw\xd8\xb2\xb9?'
p1813
tp1814
Rp1815
sg1803
g21
(g25
S'N+D\x05J\xc9\xe0?'
p1816
tp1817
Rp1818
stp1819
a(I1491190755
(dp1820
g1777
F0.003
sg1778
F0.35
sg1779
I00
sg1780
F0.5
sg1781
I100
sg1782
I100
sg1783
F0.01
sg1784
F2.4
sg1785
I201
sg1786
I1
sg1787
I1
sg1788
I100
sg1789
F70.0
sg1790
I10
sg1791
I30
sg1792
F0.9
sg1793
F6.0
s(dp1821
g1795
g21
(g25
S'\x00\x00\x00\x00\x00\x00\x00\x00'
p1822
tp1823
Rp1824
sg1799
g21
(g25
S'\xc3\xe7\x8a\x9c\xd5\xc8\xd6?'
p1825
tp1826
Rp1827
sg1803
g21
(g25
S'\x00\x00\x00\x00\x00\x00\x00\x00'
p1828
tp1829
Rp1830
stp1831
a(I1491190879
(dp1832
g1777
F0.003
sg1778
F0.35
sg1779
I00
sg1780
F0.5
sg1781
I130
sg1782
I100
sg1783
F0.01
sg1784
F2.4
sg1785
I201
sg1786
I1
sg1787
I1
sg1788
I100
sg1789
F70.0
sg1790
I10
sg1791
I30
sg1792
F0.9
sg1793
F6.0
s(dp1833
g1795
g21
(g25
S'\x00\x00\x00\x00\x00\x00\x00\x00'
p1834
tp1835
Rp1836
sg1799
g21
(g25
S'\xaf\xa2\xf6+d\xe1\xdc?'
p1837
tp1838
Rp1839
sg1803
g21
(g25
S'\x00\x00\x00\x00\x00\x00\x00\x00'
p1840
tp1841
Rp1842
stp1843
a(I1491190920
(dp1844
g1777
F0.003
sg1778
F0.35
sg1779
I00
sg1780
F0.5
sg1781
I40
sg1782
I100
sg1783
F0.01
sg1784
F2.7
sg1785
I201
sg1786
I1
sg1787
I1
sg1788
I100
sg1789
F70.0
sg1790
I10
sg1791
I30
sg1792
F0.9
sg1793
F6.0
s(dp1845
g1795
g21
(g25
S'\x00\x00\x00\x00\x00\x00\xf0?'
p1846
tp1847
Rp1848
sg1799
g21
(g25
S'\xed@\xec\xa9\xffL\x0f?'
p1849
tp1850
Rp1851
sg1803
g21
(g25
S'`\xe5\xd0"\xdb\xf9\xef?'
p1852
tp1853
Rp1854
stp1855
a(I1491190988
(dp1856
g1777
F0.003
sg1778
F0.35
sg1779
I00
sg1780
F0.5
sg1781
I70
sg1782
I100
sg1783
F0.01
sg1784
F2.7
sg1785
I201
sg1786
I1
sg1787
I1
sg1788
I100
sg1789
F70.0
sg1790
I10
sg1791
I30
sg1792
F0.9
sg1793
F6.0
s(dp1857
g1795
g21
(g25
S'\x00\x00\x00\x00\x00\x00\x00\x00'
p1858
tp1859
Rp1860
sg1799
g21
(g25
S'eu\xa7\xde~-\xb8?'
p1861
tp1862
Rp1863
sg1803
g21
(g25
S'\x9fi\x85\xa8@)\xe1?'
p1864
tp1865
Rp1866
stp1867
a(I1491191088
(dp1868
g1777
F0.003
sg1778
F0.35
sg1779
I00
sg1780
F0.5
sg1781
I100
sg1782
I100
sg1783
F0.01
sg1784
F2.7
sg1785
I201
sg1786
I1
sg1787
I1
sg1788
I100
sg1789
F70.0
sg1790
I10
sg1791
I30
sg1792
F0.9
sg1793
F6.0
s(dp1869
g1795
g21
(g25
S'\x00\x00\x00\x00\x00\x00\x00\x00'
p1870
tp1871
Rp1872
sg1799
g21
(g25
S'\x06\xaa\x90B\x1f\xb4\xd6?'
p1873
tp1874
Rp1875
sg1803
g21
(g25
S'\x00\x00\x00\x00\x00\x00\x00\x00'
p1876
tp1877
Rp1878
stp1879
a(I1491191217
(dp1880
g1777
F0.003
sg1778
F0.35
sg1779
I00
sg1780
F0.5
sg1781
I130
sg1782
I100
sg1783
F0.01
sg1784
F2.7
sg1785
I201
sg1786
I1
sg1787
I1
sg1788
I100
sg1789
F70.0
sg1790
I10
sg1791
I30
sg1792
F0.9
sg1793
F6.0
s(dp1881
g1795
g21
(g25
S'\x00\x00\x00\x00\x00\x00\x00\x00'
p1882
tp1883
Rp1884
sg1799
g21
(g25
S'\xd5\xb9;\xf5\xc8\xb2\xdc?'
p1885
tp1886
Rp1887
sg1803
g21
(g25
S'\x00\x00\x00\x00\x00\x00\x00\x00'
p1888
tp1889
Rp1890
stp1891
a(I1491191255
(dp1892
g1777
F0.003
sg1778
F0.35
sg1779
I00
sg1780
F0.5
sg1781
I40
sg1782
I100
sg1783
F0.01
sg1784
F3.0
sg1785
I201
sg1786
I1
sg1787
I1
sg1788
I100
sg1789
F70.0
sg1790
I10
sg1791
I30
sg1792
F0.9
sg1793
F6.0
s(dp1893
g1795
g21
(g25
S'\x00\x00\x00\x00\x00\x00\xf0?'
p1894
tp1895
Rp1896
sg1799
g21
(g25
S'\xadD<\xc1\xcf\xd2\x16?'
p1897
tp1898
Rp1899
sg1803
g21
(g25
S'\xcb\xa1E\xb6\xf3\xfd\xef?'
p1900
tp1901
Rp1902
stp1903
a(I1491191322
(dp1904
g1777
F0.003
sg1778
F0.35
sg1779
I00
sg1780
F0.5
sg1781
I70
sg1782
I100
sg1783
F0.01
sg1784
F3.0
sg1785
I201
sg1786
I1
sg1787
I1
sg1788
I100
sg1789
F70.0
sg1790
I10
sg1791
I30
sg1792
F0.9
sg1793
F6.0
s(dp1905
g1795
g21
(g25
S'\x00\x00\x00\x00\x00\x00\x00\x00'
p1906
tp1907
Rp1908
sg1799
g21
(g25
S' \xfe\xaf\x91\xad\xbc\xb8?'
p1909
tp1910
Rp1911
sg1803
g21
(g25
S'(\xd6l\xa4\xea\x1a\xe0?'
p1912
tp1913
Rp1914
stp1915
a(I1491191417
(dp1916
g1777
F0.003
sg1778
F0.35
sg1779
I00
sg1780
F0.5
sg1781
I100
sg1782
I100
sg1783
F0.01
sg1784
F3.0
sg1785
I201
sg1786
I1
sg1787
I1
sg1788
I100
sg1789
F70.0
sg1790
I10
sg1791
I30
sg1792
F0.9
sg1793
F6.0
s(dp1917
g1795
g21
(g25
S'\x00\x00\x00\x00\x00\x00\x00\x00'
p1918
tp1919
Rp1920
sg1799
g21
(g25
S'\xe3\x92\xcc3\xddS\xd6?'
p1921
tp1922
Rp1923
sg1803
g21
(g25
S'\x00\x00\x00\x00\x00\x00\x00\x00'
p1924
tp1925
Rp1926
stp1927
a(I1491191549
(dp1928
g1777
F0.003
sg1778
F0.35
sg1779
I00
sg1780
F0.5
sg1781
I130
sg1782
I100
sg1783
F0.01
sg1784
F3.0
sg1785
I201
sg1786
I1
sg1787
I1
sg1788
I100
sg1789
F70.0
sg1790
I10
sg1791
I30
sg1792
F0.9
sg1793
F6.0
s(dp1929
g1795
g21
(g25
S'\x00\x00\x00\x00\x00\x00\x00\x00'
p1930
tp1931
Rp1932
sg1799
g21
(g25
S'\xa3\x84\xb6y\x05v\xdb?'
p1933
tp1934
Rp1935
sg1803
g21
(g25
S'\x00\x00\x00\x00\x00\x00\x00\x00'
p1936
tp1937
Rp1938
stp1939
a(I1491191712
(dp1940
S'learn_rate'
p1941
F0.003
sS'b'
p1942
F0.0
sS'shuffle'
p1943
I00
sS'f'
p1944
F0.5
sS'reapeat_sequence'
p1945
I100
sS'ham_dist_threshold'
p1946
F0.01
sS'eps'
p1947
F2.4
sS'N'
p1948
I201
sS'initial_mean'
p1949
I1
sS'nbr_patterns'
p1950
I40
sS'initial_variance'
p1951
I1
sS'test_length'
p1952
I100
sS'theta'
p1953
F70.0
sS'nb_iter'
p1954
I10
sS'test_nb_iter'
p1955
I30
sS'successful_storage_rate'
p1956
F0.9
sS'gamma'
p1957
F6.0
s(dp1958
S'successful_storage'
p1959
g21
(g25
S'\x00\x00\x00\x00\x00\x00\xf0?'
p1960
tp1961
Rp1962
sS'avg_dist'
p1963
g21
(g25
S'\x00\x00\x00\x00\x00\x00\x00\x00'
p1964
tp1965
Rp1966
sS'err'
p1967
g21
(g25
S'\x00\x00\x00\x00\x00\x00\xf0?'
p1968
tp1969
Rp1970
stp1971
a(I1491191779
(dp1972
g1941
F0.003
sg1942
F0.0
sg1943
I00
sg1944
F0.5
sg1945
I100
sg1946
F0.01
sg1947
F2.4
sg1948
I201
sg1949
I1
sg1950
I70
sg1951
I1
sg1952
I100
sg1953
F70.0
sg1954
I10
sg1955
I30
sg1956
F0.9
sg1957
F6.0
s(dp1973
g1959
g21
(g25
S'\x00\x00\x00\x00\x00\x00\xf0?'
p1974
tp1975
Rp1976
sg1963
g21
(g25
S'\x83\xa0\x0c_\xa4\xa12?'
p1977
tp1978
Rp1979
sg1967
g21
(g25
S'\x00\x00\x00\x00\x00\x00\xf0?'
p1980
tp1981
Rp1982
stp1983
a(I1491191879
(dp1984
g1941
F0.003
sg1942
F0.0
sg1943
I00
sg1944
F0.5
sg1945
I100
sg1946
F0.01
sg1947
F2.4
sg1948
I201
sg1949
I1
sg1950
I100
sg1951
I1
sg1952
I100
sg1953
F70.0
sg1954
I10
sg1955
I30
sg1956
F0.9
sg1957
F6.0
s(dp1985
g1959
g21
(g25
S'\xaeG\xe1z\x14\xae\xef?'
p1986
tp1987
Rp1988
sg1963
g21
(g25
S'\xb3\xb9\x82\xba\xd3DY?'
p1989
tp1990
Rp1991
sg1967
g21
(g25
S'\xaeG\xe1z\x14\xae\xef?'
p1992
tp1993
Rp1994
stp1995
a(I1491192012
(dp1996
g1941
F0.003
sg1942
F0.0
sg1943
I00
sg1944
F0.5
sg1945
I100
sg1946
F0.01
sg1947
F2.4
sg1948
I201
sg1949
I1
sg1950
I130
sg1951
I1
sg1952
I100
sg1953
F70.0
sg1954
I10
sg1955
I30
sg1956
F0.9
sg1957
F6.0
s(dp1997
g1959
g21
(g25
S';\xb1\x13;\xb1\x13\xdb?'
p1998
tp1999
Rp2000
sg1963
g21
(g25
S'\x0e&a\x12&a\xc2?'
p2001
tp2002
Rp2003
sg1967
g21
(g25
S'<\xb1\x13;\xb1\x13\xdb?'
p2004
tp2005
Rp2006
stp2007
a(I1491192054
(dp2008
g1941
F0.003
sg1942
F0.0
sg1943
I00
sg1944
F0.5
sg1945
I100
sg1946
F0.01
sg1947
F2.7
sg1948
I201
sg1949
I1
sg1950
I40
sg1951
I1
sg1952
I100
sg1953
F70.0
sg1954
I10
sg1955
I30
sg1956
F0.9
sg1957
F6.0
s(dp2009
g1959
g21
(g25
S'\x00\x00\x00\x00\x00\x00\xf0?'
p2010
tp2011
Rp2012
sg1963
g21
(g25
S'\x00\x00\x00\x00\x00\x00\x00\x00'
p2013
tp2014
Rp2015
sg1967
g21
(g25
S'\x00\x00\x00\x00\x00\x00\xf0?'
p2016
tp2017
Rp2018
stp2019
a(I1491192133
(dp2020
g1941
F0.003
sg1942
F0.0
sg1943
I00
sg1944
F0.5
sg1945
I100
sg1946
F0.01
sg1947
F2.7
sg1948
I201
sg1949
I1
sg1950
I70
sg1951
I1
sg1952
I100
sg1953
F70.0
sg1954
I10
sg1955
I30
sg1956
F0.9
sg1957
F6.0
s(dp2021
g1959
g21
(g25
S'\x00\x00\x00\x00\x00\x00\xf0?'
p2022
tp2023
Rp2024
sg1963
g21
(g25
S'\x83\xa0\x0c_\xa4\xa12?'
p2025
tp2026
Rp2027
sg1967
g21
(g25
S'\x00\x00\x00\x00\x00\x00\xf0?'
p2028
tp2029
Rp2030
stp2031
a(I1491192234
(dp2032
g1941
F0.003
sg1942
F0.0
sg1943
I00
sg1944
F0.5
sg1945
I100
sg1946
F0.01
sg1947
F2.7
sg1948
I201
sg1949
I1
sg1950
I100
sg1951
I1
sg1952
I100
sg1953
F70.0
sg1954
I10
sg1955
I30
sg1956
F0.9
sg1957
F6.0
s(dp2033
g1959
g21
(g25
S'\xcd\xcc\xcc\xcc\xcc\xcc\xec?'
p2034
tp2035
Rp2036
sg1963
g21
(g25
S'\x00G\xce\xcfq\x86q?'
p2037
tp2038
Rp2039
sg1967
g21
(g25
S'\xcd\xcc\xcc\xcc\xcc\xcc\xec?'
p2040
tp2041
Rp2042
stp2043
a(I1491192367
(dp2044
g1941
F0.003
sg1942
F0.0
sg1943
I00
sg1944
F0.5
sg1945
I100
sg1946
F0.01
sg1947
F2.7
sg1948
I201
sg1949
I1
sg1950
I130
sg1951
I1
sg1952
I100
sg1953
F70.0
sg1954
I10
sg1955
I30
sg1956
F0.9
sg1957
F6.0
s(dp2045
g1959
g21
(g25
S'\x92\x1b\xb9\x91\x1b\xb9\xb1?'
p2046
tp2047
Rp2048
sg1963
g21
(g25
S'_-Tx\xab\x89\xce?'
p2049
tp2050
Rp2051
sg1967
g21
(g25
S'\x90\x1b\xb9\x91\x1b\xb9\xb1?'
p2052
tp2053
Rp2054
stp2055
a(I1491192408
(dp2056
g1941
F0.003
sg1942
F0.0
sg1943
I00
sg1944
F0.5
sg1945
I100
sg1946
F0.01
sg1947
F3.0
sg1948
I201
sg1949
I1
sg1950
I40
sg1951
I1
sg1952
I100
sg1953
F70.0
sg1954
I10
sg1955
I30
sg1956
F0.9
sg1957
F6.0
s(dp2057
g1959
g21
(g25
S'\x00\x00\x00\x00\x00\x00\xf0?'
p2058
tp2059
Rp2060
sg1963
g21
(g25
S'\x00\x00\x00\x00\x00\x00\x00\x00'
p2061
tp2062
Rp2063
sg1967
g21
(g25
S'\x00\x00\x00\x00\x00\x00\xf0?'
p2064
tp2065
Rp2066
stp2067
a(I1491192478
(dp2068
g1941
F0.003
sg1942
F0.0
sg1943
I00
sg1944
F0.5
sg1945
I100
sg1946
F0.01
sg1947
F3.0
sg1948
I201
sg1949
I1
sg1950
I70
sg1951
I1
sg1952
I100
sg1953
F70.0
sg1954
I10
sg1955
I30
sg1956
F0.9
sg1957
F6.0
s(dp2069
g1959
g21
(g25
S'\x00\x00\x00\x00\x00\x00\xf0?'
p2070
tp2071
Rp2072
sg1963
g21
(g25
S'\x924\xee\xea\xd8\xf5D?'
p2073
tp2074
Rp2075
sg1967
g21
(g25
S'\x00\x00\x00\x00\x00\x00\xf0?'
p2076
tp2077
Rp2078
stp2079
a(I1491192586
(dp2080
g1941
F0.003
sg1942
F0.0
sg1943
I00
sg1944
F0.5
sg1945
I100
sg1946
F0.01
sg1947
F3.0
sg1948
I201
sg1949
I1
sg1950
I100
sg1951
I1
sg1952
I100
sg1953
F70.0
sg1954
I10
sg1955
I30
sg1956
F0.9
sg1957
F6.0
s(dp2081
g1959
g21
(g25
S'\x9a\x99\x99\x99\x99\x99\xc9?'
p2082
tp2083
Rp2084
sg1963
g21
(g25
S'@"`\x01\xc5\xc5\xa6?'
p2085
tp2086
Rp2087
sg1967
g21
(g25
S'\x98\x99\x99\x99\x99\x99\xc9?'
p2088
tp2089
Rp2090
stp2091
a(I1491192722
(dp2092
g1941
F0.003
sg1942
F0.0
sg1943
I00
sg1944
F0.5
sg1945
I100
sg1946
F0.01
sg1947
F3.0
sg1948
I201
sg1949
I1
sg1950
I130
sg1951
I1
sg1952
I100
sg1953
F70.0
sg1954
I10
sg1955
I30
sg1956
F0.9
sg1957
F6.0
s(dp2093
g1959
g21
(g25
S'\xd1\x0b\xbd\xd0\x0b\xbd\xc0?'
p2094
tp2095
Rp2096
sg1963
g21
(g25
S'<\xe0\xecO\xc9n\xca?'
p2097
tp2098
Rp2099
sg1967
g21
(g25
S'\xd0\x0b\xbd\xd0\x0b\xbd\xc0?'
p2100
tp2101
Rp2102
stp2103
a(I1491196512
(dp2104
S'learn_rate'
p2105
F0.003
sS'b'
p2106
F0.1
sS'shuffle'
p2107
I00
sS'f'
p2108
F0.5
sS'reapeat_sequence'
p2109
I100
sS'ham_dist_threshold'
p2110
F0.01
sS'eps'
p2111
F1.8
sS'N'
p2112
I201
sS'nbr_patterns'
p2113
I10
sS'initial_variance'
p2114
I1
sS'theta'
p2115
F70.0
sS'test_length'
p2116
I100
sS'initial_mean'
p2117
I1
sS'nb_iter'
p2118
I10
sS'test_nb_iter'
p2119
I30
sS'successful_storage_rate'
p2120
F0.9
sS'gamma'
p2121
F6.0
s(dp2122
S'successful_storage'
p2123
g21
(g25
S'\x00\x00\x00\x00\x00\x00\xf0?'
p2124
tp2125
Rp2126
sS'avg_dist'
p2127
g21
(g25
S'\x00\x00\x00\x00\x00\x00\x00\x00'
p2128
tp2129
Rp2130
sS'err'
p2131
g21
(g25
S'\x00\x00\x00\x00\x00\x00\xf0?'
p2132
tp2133
Rp2134
stp2135
a(I1491196530
(dp2136
g2105
F0.003
sg2106
F0.1
sg2107
I00
sg2108
F0.5
sg2109
I100
sg2110
F0.01
sg2111
F1.8
sg2112
I201
sg2113
I20
sg2114
I1
sg2115
F70.0
sg2116
I100
sg2117
I1
sg2118
I10
sg2119
I30
sg2120
F0.9
sg2121
F6.0
s(dp2137
g2123
g21
(g25
S'\x00\x00\x00\x00\x00\x00\xf0?'
p2138
tp2139
Rp2140
sg2127
g21
(g25
S'\x00\x00\x00\x00\x00\x00\x00\x00'
p2141
tp2142
Rp2143
sg2131
g21
(g25
S'\x00\x00\x00\x00\x00\x00\xf0?'
p2144
tp2145
Rp2146
stp2147
a(I1491196555
(dp2148
g2105
F0.003
sg2106
F0.1
sg2107
I00
sg2108
F0.5
sg2109
I100
sg2110
F0.01
sg2111
F1.8
sg2112
I201
sg2113
I30
sg2114
I1
sg2115
F70.0
sg2116
I100
sg2117
I1
sg2118
I10
sg2119
I30
sg2120
F0.9
sg2121
F6.0
s(dp2149
g2123
g21
(g25
S'\xef\xee\xee\xee\xee\xee\xee?'
p2150
tp2151
Rp2152
sg2127
g21
(g25
S'\xeb\x8fD\xab\xcb\xcfN?'
p2153
tp2154
Rp2155
sg2131
g21
(g25
S'\x85\xebQ\xb8\x1e\x85\xef?'
p2156
tp2157
Rp2158
stp2159
a(I1491196589
(dp2160
g2105
F0.003
sg2106
F0.1
sg2107
I00
sg2108
F0.5
sg2109
I100
sg2110
F0.01
sg2111
F1.8
sg2112
I201
sg2113
I40
sg2114
I1
sg2115
F70.0
sg2116
I100
sg2117
I1
sg2118
I10
sg2119
I30
sg2120
F0.9
sg2121
F6.0
s(dp2161
g2123
g21
(g25
S'\x9a\x99\x99\x99\x99\x99\xed?'
p2162
tp2163
Rp2164
sg2127
g21
(g25
S'\xf5,!\xa8\xef\xf3_?'
p2165
tp2166
Rp2167
sg2131
g21
(g25
S'\x9c\xc4 \xb0rh\xef?'
p2168
tp2169
Rp2170
stp2171
a(I1491196634
(dp2172
g2105
F0.003
sg2106
F0.1
sg2107
I00
sg2108
F0.5
sg2109
I100
sg2110
F0.01
sg2111
F1.8
sg2112
I201
sg2113
I50
sg2114
I1
sg2115
F70.0
sg2116
I100
sg2117
I1
sg2118
I10
sg2119
I30
sg2120
F0.9
sg2121
F6.0
s(dp2173
g2123
g21
(g25
S'\xb8\x1e\x85\xebQ\xb8\xee?'
p2174
tp2175
Rp2176
sg2127
g21
(g25
S'\xb8ZsiE\x82A?'
p2177
tp2178
Rp2179
sg2131
g21
(g25
S'|\xf2\xb0Pk\x9a\xef?'
p2180
tp2181
Rp2182
stp2183
a(I1491196689
(dp2184
g2105
F0.003
sg2106
F0.1
sg2107
I00
sg2108
F0.5
sg2109
I100
sg2110
F0.01
sg2111
F1.8
sg2112
I201
sg2113
I60
sg2114
I1
sg2115
F70.0
sg2116
I100
sg2117
I1
sg2118
I10
sg2119
I30
sg2120
F0.9
sg2121
F6.0
s(dp2185
g2123
g21
(g25
S'\xef\xee\xee\xee\xee\xee\xee?'
p2186
tp2187
Rp2188
sg2127
g21
(g25
S'e\xe1|\x11\xcd\xabH?'
p2189
tp2190
Rp2191
sg2131
g21
(g25
S'uL\xf0`\x9e\xa8\xef?'
p2192
tp2193
Rp2194
stp2195
a(I1491196755
(dp2196
g2105
F0.003
sg2106
F0.1
sg2107
I00
sg2108
F0.5
sg2109
I100
sg2110
F0.01
sg2111
F1.8
sg2112
I201
sg2113
I70
sg2114
I1
sg2115
F70.0
sg2116
I100
sg2117
I1
sg2118
I10
sg2119
I30
sg2120
F0.9
sg2121
F6.0
s(dp2197
g2123
g21
(g25
S';\xa8\x83:\xa8\x83\xea?'
p2198
tp2199
Rp2200
sg2127
g21
(g25
S'\x91\x08\x00\xa3\xdb1\x81?'
p2201
tp2202
Rp2203
sg2131
g21
(g25
S'\xce}v\x01\xb1\xa9\xec?'
p2204
tp2205
Rp2206
stp2207
a(I1491196833
(dp2208
g2105
F0.003
sg2106
F0.1
sg2107
I00
sg2108
F0.5
sg2109
I100
sg2110
F0.01
sg2111
F1.8
sg2112
I201
sg2113
I80
sg2114
I1
sg2115
F70.0
sg2116
I100
sg2117
I1
sg2118
I10
sg2119
I30
sg2120
F0.9
sg2121
F6.0
s(dp2209
g2123
g21
(g25
S'333333\xe9?'
p2210
tp2211
Rp2212
sg2127
g21
(g25
S'\x1eDg\xf5\xcfN\x85?'
p2213
tp2214
Rp2215
sg2131
g21
(g25
S'\x8bl\xe7\xfb\xa9\xf1\xec?'
p2216
tp2217
Rp2218
stp2219
a(I1491196914
(dp2220
g2105
F0.003
sg2106
F0.1
sg2107
I00
sg2108
F0.5
sg2109
I100
sg2110
F0.01
sg2111
F1.8
sg2112
I201
sg2113
I85
sg2114
I1
sg2115
F70.0
sg2116
I100
sg2117
I1
sg2118
I10
sg2119
I30
sg2120
F0.9
sg2121
F6.0
s(dp2221
g2123
g21
(g25
S']]]]]]\xdd?'
p2222
tp2223
Rp2224
sg2127
g21
(g25
S'Z\xf5v\x87\xc3\x08\x9a?'
p2225
tp2226
Rp2227
sg2131
g21
(g25
S'\x16\xcf\xedr^\xb0\xe8?'
p2228
tp2229
Rp2230
stp2231
a(I1491197000
(dp2232
g2105
F0.003
sg2106
F0.1
sg2107
I00
sg2108
F0.5
sg2109
I100
sg2110
F0.01
sg2111
F1.8
sg2112
I201
sg2113
I90
sg2114
I1
sg2115
F70.0
sg2116
I100
sg2117
I1
sg2118
I10
sg2119
I30
sg2120
F0.9
sg2121
F6.0
s(dp2233
g2123
g21
(g25
S'\xd8\x82-\xd8\x82-\xd8?'
p2234
tp2235
Rp2236
sg2127
g21
(g25
S'\n\xaa\x01J>d\x9b?'
p2237
tp2238
Rp2239
sg2131
g21
(g25
S"}\xd2'}\xd2'\xe9?"
p2240
tp2241
Rp2242
stp2243
a(I1491197090
(dp2244
g2105
F0.003
sg2106
F0.1
sg2107
I00
sg2108
F0.5
sg2109
I100
sg2110
F0.01
sg2111
F1.8
sg2112
I201
sg2113
I95
sg2114
I1
sg2115
F70.0
sg2116
I100
sg2117
I1
sg2118
I10
sg2119
I30
sg2120
F0.9
sg2121
F6.0
s(dp2245
g2123
g21
(g25
S'\xedX\x810\xd2\x8e\x85?'
p2246
tp2247
Rp2248
sg2127
g21
(g25
S'\x01\xd1\xa3D\xfc\x90\xb9?'
p2249
tp2250
Rp2251
sg2131
g21
(g25
S'\x84\x91v\xac@\x18\xe1?'
p2252
tp2253
Rp2254
stp2255
a(I1491197183
(dp2256
g2105
F0.003
sg2106
F0.1
sg2107
I00
sg2108
F0.5
sg2109
I100
sg2110
F0.01
sg2111
F1.8
sg2112
I201
sg2113
I100
sg2114
I1
sg2115
F70.0
sg2116
I100
sg2117
I1
sg2118
I10
sg2119
I30
sg2120
F0.9
sg2121
F6.0
s(dp2257
g2123
g21
(g25
S'\x00\x00\x00\x00\x00\x00\x00\x00'
p2258
tp2259
Rp2260
sg2127
g21
(g25
S'\xa4P\xcc*\xa6J\xc8?'
p2261
tp2262
Rp2263
sg2131
g21
(g25
S'\x1a\xb7\xd1\x00\xde\x02\xd5?'
p2264
tp2265
Rp2266
stp2267
a(I1491198162
(dp2268
S'learn_rate'
p2269
F0.003
sS'b'
p2270
F0.1
sS'shuffle'
p2271
I00
sS'f'
p2272
F0.5
sS'nbr_patterns'
p2273
I10
sS'reapeat_sequence'
p2274
I100
sS'ham_dist_threshold'
p2275
F0.01
sS'eps'
p2276
F1.8
sS'N'
p2277
I201
sS'initial_mean'
p2278
I1
sS'initial_variance'
p2279
I1
sS'test_length'
p2280
I100
sS'theta'
p2281
F70.0
sS'nb_iter'
p2282
I10
sS'test_nb_iter'
p2283
I30
sS'successful_storage_rate'
p2284
F0.9
sS'gamma'
p2285
F6.0
s(dp2286
S'successful_storage'
p2287
g21
(g25
S'\x00\x00\x00\x00\x00\x00\xf0?'
p2288
tp2289
Rp2290
sS'avg_dist'
p2291
g21
(g25
S'\x00\x00\x00\x00\x00\x00\x00\x00'
p2292
tp2293
Rp2294
sS'err'
p2295
g21
(g25
S'\x00\x00\x00\x00\x00\x00\xf0?'
p2296
tp2297
Rp2298
stp2299
a(I1491198178
(dp2300
g2269
F0.003
sg2270
F0.1
sg2271
I00
sg2272
F0.5
sg2273
I20
sg2274
I100
sg2275
F0.01
sg2276
F1.8
sg2277
I201
sg2278
I1
sg2279
I1
sg2280
I100
sg2281
F70.0
sg2282
I10
sg2283
I30
sg2284
F0.9
sg2285
F6.0
s(dp2301
g2287
g21
(g25
S'\x00\x00\x00\x00\x00\x00\xf0?'
p2302
tp2303
Rp2304
sg2291
g21
(g25
S'\x00\x00\x00\x00\x00\x00\x00\x00'
p2305
tp2306
Rp2307
sg2295
g21
(g25
S'\x00\x00\x00\x00\x00\x00\xf0?'
p2308
tp2309
Rp2310
stp2311
a(I1491198202
(dp2312
g2269
F0.003
sg2270
F0.1
sg2271
I00
sg2272
F0.5
sg2273
I30
sg2274
I100
sg2275
F0.01
sg2276
F1.8
sg2277
I201
sg2278
I1
sg2279
I1
sg2280
I100
sg2281
F70.0
sg2282
I10
sg2283
I30
sg2284
F0.9
sg2285
F6.0
s(dp2313
g2287
g21
(g25
S'\x00\x00\x00\x00\x00\x00\xf0?'
p2314
tp2315
Rp2316
sg2291
g21
(g25
S'\x00\x00\x00\x00\x00\x00\x00\x00'
p2317
tp2318
Rp2319
sg2295
g21
(g25
S'\x00\x00\x00\x00\x00\x00\xf0?'
p2320
tp2321
Rp2322
stp2323
a(I1491198240
(dp2324
g2269
F0.003
sg2270
F0.1
sg2271
I00
sg2272
F0.5
sg2273
I40
sg2274
I100
sg2275
F0.01
sg2276
F1.8
sg2277
I201
sg2278
I1
sg2279
I1
sg2280
I100
sg2281
F70.0
sg2282
I10
sg2283
I30
sg2284
F0.9
sg2285
F6.0
s(dp2325
g2287
g21
(g25
S'\x00\x00\x00\x00\x00\x00\xf0?'
p2326
tp2327
Rp2328
sg2291
g21
(g25
S"\xb5\xe1\x18\xbe\xf3\xf6'?"
p2329
tp2330
Rp2331
sg2295
g21
(g25
S'V\x0e-\xb2\x9d\xef\xef?'
p2332
tp2333
Rp2334
stp2335
a(I1491198288
(dp2336
g2269
F0.003
sg2270
F0.1
sg2271
I00
sg2272
F0.5
sg2273
I50
sg2274
I100
sg2275
F0.01
sg2276
F1.8
sg2277
I201
sg2278
I1
sg2279
I1
sg2280
I100
sg2281
F70.0
sg2282
I10
sg2283
I30
sg2284
F0.9
sg2285
F6.0
s(dp2337
g2287
g21
(g25
S'\x14\xaeG\xe1z\x14\xee?'
p2338
tp2339
Rp2340
sg2291
g21
(g25
S'\xf2\xf3N\xe8\xb9;k?'
p2341
tp2342
Rp2343
sg2295
g21
(g25
S'\x14\xd0D\xd8\xf0\xf4\xee?'
p2344
tp2345
Rp2346
stp2347
a(I1491198347
(dp2348
g2269
F0.003
sg2270
F0.1
sg2271
I00
sg2272
F0.5
sg2273
I60
sg2274
I100
sg2275
F0.01
sg2276
F1.8
sg2277
I201
sg2278
I1
sg2279
I1
sg2280
I100
sg2281
F70.0
sg2282
I10
sg2283
I30
sg2284
F0.9
sg2285
F6.0
s(dp2349
g2287
g21
(g25
S'wwwwww\xef?'
p2350
tp2351
Rp2352
sg2291
g21
(g25
S'\x00[\x99\xd1\x81\xdf@?'
p2353
tp2354
Rp2355
sg2295
g21
(g25
S'\xd2\x94\x8a\xb3\x0f\x9f\xef?'
p2356
tp2357
Rp2358
stp2359
a(I1491198415
(dp2360
g2269
F0.003
sg2270
F0.1
sg2271
I00
sg2272
F0.5
sg2273
I70
sg2274
I100
sg2275
F0.01
sg2276
F1.8
sg2277
I201
sg2278
I1
sg2279
I1
sg2280
I100
sg2281
F70.0
sg2282
I10
sg2283
I30
sg2284
F0.9
sg2285
F6.0
s(dp2361
g2287
g21
(g25
S'\xdb\xb6m\xdb\xb6m\xeb?'
p2362
tp2363
Rp2364
sg2291
g21
(g25
S'\x10\x1e\x1c\xd9\xc9p{?'
p2365
tp2366
Rp2367
sg2295
g21
(g25
S'\xee\xf6\x1c\x17S\xac\xed?'
p2368
tp2369
Rp2370
stp2371
a(I1491198505
(dp2372
g2269
F0.003
sg2270
F0.1
sg2271
I00
sg2272
F0.5
sg2273
I80
sg2274
I100
sg2275
F0.01
sg2276
F1.8
sg2277
I201
sg2278
I1
sg2279
I1
sg2280
I100
sg2281
F70.0
sg2282
I10
sg2283
I30
sg2284
F0.9
sg2285
F6.0
s(dp2373
g2287
g21
(g25
S'333333\xe7?'
p2374
tp2375
Rp2376
sg2291
g21
(g25
S'8\xc3\x08\xd4\xfe\xb6\x88?'
p2377
tp2378
Rp2379
sg2295
g21
(g25
S'\xe5\xd0"\xdb\xf9\xfe\xeb?'
p2380
tp2381
Rp2382
stp2383
a(I1491198590
(dp2384
g2269
F0.003
sg2270
F0.1
sg2271
I00
sg2272
F0.5
sg2273
I85
sg2274
I100
sg2275
F0.01
sg2276
F1.8
sg2277
I201
sg2278
I1
sg2279
I1
sg2280
I100
sg2281
F70.0
sg2282
I10
sg2283
I30
sg2284
F0.9
sg2285
F6.0
s(dp2385
g2287
g21
(g25
S'\x94\x93\x93\x93\x93\x93\xe3?'
p2386
tp2387
Rp2388
sg2291
g21
(g25
S'\x1f\x9b#\r&\xdd\x93?'
p2389
tp2390
Rp2391
sg2295
g21
(g25
S'<\xc1\xac\xfe\xb6\xd5\xea?'
p2392
tp2393
Rp2394
stp2395
a(I1491198680
(dp2396
g2269
F0.003
sg2270
F0.1
sg2271
I00
sg2272
F0.5
sg2273
I90
sg2274
I100
sg2275
F0.01
sg2276
F1.8
sg2277
I201
sg2278
I1
sg2279
I1
sg2280
I100
sg2281
F70.0
sg2282
I10
sg2283
I30
sg2284
F0.9
sg2285
F6.0
s(dp2397
g2287
g21
(g25
S'\x1c\xc7q\x1c\xc7q\xac?'
p2398
tp2399
Rp2400
sg2291
g21
(g25
S'p\xcbn\x13?Q\xb7?'
p2401
tp2402
Rp2403
sg2295
g21
(g25
S'\x1c{\xa7\xa0f\xf9\xe0?'
p2404
tp2405
Rp2406
stp2407
a(I1491198776
(dp2408
g2269
F0.003
sg2270
F0.1
sg2271
I00
sg2272
F0.5
sg2273
I95
sg2274
I100
sg2275
F0.01
sg2276
F1.8
sg2277
I201
sg2278
I1
sg2279
I1
sg2280
I100
sg2281
F70.0
sg2282
I10
sg2283
I30
sg2284
F0.9
sg2285
F6.0
s(dp2409
g2287
g21
(g25
S'\xedX\x810\xd2\x8e\xc5?'
p2410
tp2411
Rp2412
sg2291
g21
(g25
S't\xa0\x07\x0e\xb2;\xa5?'
p2413
tp2414
Rp2415
sg2295
g21
(g25
S'\xa0\x98\xc8\xed\x8e\x9e\xe7?'
p2416
tp2417
Rp2418
stp2419
a(I1491198872
(dp2420
g2269
F0.003
sg2270
F0.1
sg2271
I00
sg2272
F0.5
sg2273
I100
sg2274
I100
sg2275
F0.01
sg2276
F1.8
sg2277
I201
sg2278
I1
sg2279
I1
sg2280
I100
sg2281
F70.0
sg2282
I10
sg2283
I30
sg2284
F0.9
sg2285
F6.0
s(dp2421
g2287
g21
(g25
S'\x00\x00\x00\x00\x00\x00\x00\x00'
p2422
tp2423
Rp2424
sg2291
g21
(g25
S'\xdcB\x982$\x05\xbd?'
p2425
tp2426
Rp2427
sg2295
g21
(g25
S'ffffff\xe0?'
p2428
tp2429
Rp2430
stp2431
a.