(lp0
(dp1
S'learn_rate'
p2
F0.01
sS'b'
p3
F0.5
sS'shuffle'
p4
I00
sS'successful_storage_rate'
p5
F0.9
sS'err'
p6
cnumpy.core.multiarray
scalar
p7
(cnumpy
dtype
p8
(S'f8'
p9
I0
I1
tp10
Rp11
(I3
S'<'
p12
NNNI-1
I-1
I0
tp13
bS'\x00\x00\x00\x00\x00\x00\x00\x00'
p14
tp15
Rp16
sS'f'
p17
F0.5
sS'ham_dist_threshold'
p18
F0.01
sS'successful_storage'
p19
g7
(g11
S'\x00\x00\x00\x00\x00\x00\x00\x00'
p20
tp21
Rp22
sS'reapeat_sequence'
p23
I1
sS'eps'
p24
I0
sS'N'
p25
I1001
sS'initial_mean'
p26
I1
sS'gamma'
p27
F9.0
sS'initial_variance'
p28
I1
sS'test_length'
p29
I100
sS'theta'
p30
F350.0
sS'nb_iter'
p31
I50
sS'avg_dist'
p32
g7
(g11
S'\x06$\xcb\xfbg\x18\xdb?'
p33
tp34
Rp35
sS'id'
p36
I1491002387
sS'test_nb_iter'
p37
I30
sa(dp38
g2
F0.01
sg3
F0.5
sg4
I00
sg5
F0.9
sg6
g7
(g11
S'\x00\x00\x00\x00\x00\x00\x00\x00'
p39
tp40
Rp41
sg17
F0.5
sg18
F0.01
sg19
g7
(g11
S'\x00\x00\x00\x00\x00\x00\x00\x00'
p42
tp43
Rp44
sg23
I1
sg24
F0.01
sg25
I1001
sg26
I1
sg27
F9.0
sg28
I1
sg29
I100
sg30
F350.0
sg31
I50
sg32
g7
(g11
S'z/\xacM$\xf0\xda?'
p45
tp46
Rp47
sg36
I1491002407
sg37
I30
sa(dp48
g2
F0.01
sg3
F0.5
sg4
I00
sg5
F0.9
sg6
g7
(g11
S'\x00\x00\x00\x00\x00\x00\x00\x00'
p49
tp50
Rp51
sg17
F0.5
sg18
F0.01
sg19
g7
(g11
S'\x00\x00\x00\x00\x00\x00\x00\x00'
p52
tp53
Rp54
sg23
I1
sg24
F0.02
sg25
I1001
sg26
I1
sg27
F9.0
sg28
I1
sg29
I100
sg30
F350.0
sg31
I50
sg32
g7
(g11
S'\xddV\xfb\xad\xb7\x03\xdb?'
p55
tp56
Rp57
sg36
I1491002426
sg37
I30
sa(dp58
g2
F0.01
sg3
F0.5
sg4
I00
sg5
F0.9
sg6
g7
(g11
S'\x00\x00\x00\x00\x00\x00\x00\x00'
p59
tp60
Rp61
sg17
F0.5
sg18
F0.01
sg19
g7
(g11
S'\x00\x00\x00\x00\x00\x00\x00\x00'
p62
tp63
Rp64
sg23
I1
sg24
F0.05
sg25
I1001
sg26
I1
sg27
F9.0
sg28
I1
sg29
I100
sg30
F350.0
sg31
I50
sg32
g7
(g11
S'V\xe6\x0c\xd3\xa9\xe7\xda?'
p65
tp66
Rp67
sg36
I1491002450
sg37
I30
sa(dp68
g2
F0.01
sg3
F0.5
sg4
I00
sg5
F0.9
sg6
g7
(g11
S'\x00\x00\x00\x00\x00\x00\x00\x00'
p69
tp70
Rp71
sg17
F0.5
sg18
F0.01
sg19
g7
(g11
S'\x00\x00\x00\x00\x00\x00\x00\x00'
p72
tp73
Rp74
sg23
I1
sg24
F0.1
sg25
I1001
sg26
I1
sg27
F9.0
sg28
I1
sg29
I100
sg30
F350.0
sg31
I50
sg32
g7
(g11
S'\xe3\x92C\xcc\x1a\xde\xda?'
p75
tp76
Rp77
sg36
I1491002472
sg37
I30
sa(dp78
g2
F0.01
sg3
F0.5
sg4
I00
sg5
F0.9
sg6
g7
(g11
S'\x00\x00\x00\x00\x00\x00\x00\x00'
p79
tp80
Rp81
sg17
F0.5
sg18
F0.01
sg19
g7
(g11
S'\x00\x00\x00\x00\x00\x00\x00\x00'
p82
tp83
Rp84
sg23
I1
sg24
F0.2
sg25
I1001
sg26
I1
sg27
F9.0
sg28
I1
sg29
I100
sg30
F350.0
sg31
I50
sg32
g7
(g11
S'\xb6\xd6\x04\xe7\t8\xda?'
p85
tp86
Rp87
sg36
I1491002492
sg37
I30
sa(dp88
g2
F0.01
sg3
F0.5
sg4
I00
sg5
F0.9
sg6
g7
(g11
S'\x00\x00\x00\x00\x00\x004@'
p89
tp90
Rp91
sg17
F0.5
sg18
F0.01
sg19
g7
(g11
S'\x00\x00\x00\x00\x00\x004@'
p92
tp93
Rp94
sg23
I1
sg24
F0.5
sg25
I1001
sg26
I1
sg27
F9.0
sg28
I1
sg29
I100
sg30
F350.0
sg31
I50
sg32
g7
(g11
S':M\x02\xdf\xd80\xd9?'
p95
tp96
Rp97
sg36
I1491002512
sg37
I30
sa(dp98
g2
F0.01
sg3
F0.5
sg4
I00
sg5
F0.9
sg6
g7
(g11
S'\x00\x00\x00\x00\x00\x004@'
p99
tp100
Rp101
sg17
F0.5
sg18
F0.01
sg19
g7
(g11
S'\x00\x00\x00\x00\x00\x004@'
p102
tp103
Rp104
sg23
I1
sg24
F1.0
sg25
I1001
sg26
I1
sg27
F9.0
sg28
I1
sg29
I100
sg30
F350.0
sg31
I50
sg32
g7
(g11
S':M\x02\xdf\xd80\xd9?'
p105
tp106
Rp107
sg36
I1491002532
sg37
I30
sa(dp108
g2
F0.01
sg3
F0.5
sg4
I00
sg5
F0.9
sg6
g7
(g11
S'\x00\x00\x00\x00\x00\x004@'
p109
tp110
Rp111
sg17
F0.5
sg18
F0.01
sg19
g7
(g11
S'\x00\x00\x00\x00\x00\x004@'
p112
tp113
Rp114
sg23
I1
sg24
F2.0
sg25
I1001
sg26
I1
sg27
F9.0
sg28
I1
sg29
I100
sg30
F350.0
sg31
I50
sg32
g7
(g11
S':M\x02\xdf\xd80\xd9?'
p115
tp116
Rp117
sg36
I1491002552
sg37
I30
sa(dp118
g2
F0.01
sg3
F0.5
sg4
I00
sg5
F0.9
sg6
g7
(g11
S'\x00\x00\x00\x00\x00\x004@'
p119
tp120
Rp121
sg17
F0.5
sg18
F0.01
sg19
g7
(g11
S'\x00\x00\x00\x00\x00\x004@'
p122
tp123
Rp124
sg23
I1
sg24
F5.0
sg25
I1001
sg26
I1
sg27
F9.0
sg28
I1
sg29
I100
sg30
F350.0
sg31
I50
sg32
g7
(g11
S':M\x02\xdf\xd80\xd9?'
p125
tp126
Rp127
sg36
I1491002575
sg37
I30
sa(dp128
g2
F0.01
sg3
F0.5
sg4
I00
sg5
F0.9
sg6
g7
(g11
S'\x00\x00\x00\x00\x00\x004@'
p129
tp130
Rp131
sg17
F0.5
sg18
F0.01
sg19
g7
(g11
S'\x00\x00\x00\x00\x00\x004@'
p132
tp133
Rp134
sg23
I1
sg24
F10.0
sg25
I1001
sg26
I1
sg27
F9.0
sg28
I1
sg29
I100
sg30
F350.0
sg31
I50
sg32
g7
(g11
S'M\xa9\xda\xc1z \xd9?'
p135
tp136
Rp137
sg36
I1491002594
sg37
I30
sa(dp138
S'learn_rate'
p139
F0.01
sS'id'
p140
I1490999968
sS'b'
p141
F0.5
sS'shuffle'
p142
I00
sS'err'
p143
g7
(g11
S'\x00\x00\x00\x00\x00\x00\x00\x00'
p144
tp145
Rp146
sS'f'
p147
F0.5
sS'successful_storage'
p148
g7
(g11
S'\x00\x00\x00\x00\x00\x00\x00\x00'
p149
tp150
Rp151
sS'ham_dist_threshold'
p152
F0.01
sS'eps'
p153
I0
sS'avg_dist'
p154
g7
(g11
S'\xc3\xb6\xc3Q\x94\xaa\xda?'
p155
tp156
Rp157
sS'N'
p158
I1001
sS'nb_iter'
p159
I50
sS'initial_mean'
p160
I1
sS'initial_variance'
p161
I1
sS'test_length'
p162
I100
sS'theta'
p163
F350.0
sS'successful_storage_rate'
p164
F0.9
sS'test_nb_iter'
p165
I30
sS'reapeat_sequence'
p166
I1
sS'gamma'
p167
F6.0
sa(dp168
g139
F0.01
sg140
I1490999991
sg141
F0.5
sg142
I00
sg143
g7
(g11
S'\x00\x00\x00\x00\x00\x00\x00\x00'
p169
tp170
Rp171
sg147
F0.5
sg148
g7
(g11
S'\x00\x00\x00\x00\x00\x00\x00\x00'
p172
tp173
Rp174
sg152
F0.01
sg153
F0.01
sg154
g7
(g11
S'\xea\xa8\x80\x9f\x18\xd9\xda?'
p175
tp176
Rp177
sg158
I1001
sg159
I50
sg160
I1
sg161
I1
sg162
I100
sg163
F350.0
sg164
F0.9
sg165
I30
sg166
I1
sg167
F6.0
sa(dp178
g139
F0.01
sg140
I1491000016
sg141
F0.5
sg142
I00
sg143
g7
(g11
S'\x00\x00\x00\x00\x00\x00\x00\x00'
p179
tp180
Rp181
sg147
F0.5
sg148
g7
(g11
S'\x00\x00\x00\x00\x00\x00\x00\x00'
p182
tp183
Rp184
sg152
F0.01
sg153
F0.02
sg154
g7
(g11
S' \xbbrW\x82\xe1\xda?'
p185
tp186
Rp187
sg158
I1001
sg159
I50
sg160
I1
sg161
I1
sg162
I100
sg163
F350.0
sg164
F0.9
sg165
I30
sg166
I1
sg167
F6.0
sa(dp188
g139
F0.01
sg140
I1491000039
sg141
F0.5
sg142
I00
sg143
g7
(g11
S'\x00\x00\x00\x00\x00\x00\x00\x00'
p189
tp190
Rp191
sg147
F0.5
sg148
g7
(g11
S'\x00\x00\x00\x00\x00\x00\x00\x00'
p192
tp193
Rp194
sg152
F0.01
sg153
F0.05
sg154
g7
(g11
S'\xe3\xac\t\xdbi\xa1\xda?'
p195
tp196
Rp197
sg158
I1001
sg159
I50
sg160
I1
sg161
I1
sg162
I100
sg163
F350.0
sg164
F0.9
sg165
I30
sg166
I1
sg167
F6.0
sa(dp198
g139
F0.01
sg140
I1491000065
sg141
F0.5
sg142
I00
sg143
g7
(g11
S'\x00\x00\x00\x00\x00\x00\x00\x00'
p199
tp200
Rp201
sg147
F0.5
sg148
g7
(g11
S'\x00\x00\x00\x00\x00\x00\x00\x00'
p202
tp203
Rp204
sg152
F0.01
sg153
F0.1
sg154
g7
(g11
S'`\xc1i\x1e#W\xda?'
p205
tp206
Rp207
sg158
I1001
sg159
I50
sg160
I1
sg161
I1
sg162
I100
sg163
F350.0
sg164
F0.9
sg165
I30
sg166
I1
sg167
F6.0
sa(dp208
g139
F0.01
sg140
I1491000093
sg141
F0.5
sg142
I00
sg143
g7
(g11
S'\x00\x00\x00\x00\x00\x00\x00\x00'
p209
tp210
Rp211
sg147
F0.5
sg148
g7
(g11
S'\x00\x00\x00\x00\x00\x00\x00\x00'
p212
tp213
Rp214
sg152
F0.01
sg153
F0.2
sg154
g7
(g11
S'@\xa8(\xe0NH\xda?'
p215
tp216
Rp217
sg158
I1001
sg159
I50
sg160
I1
sg161
I1
sg162
I100
sg163
F350.0
sg164
F0.9
sg165
I30
sg166
I1
sg167
F6.0
sa(dp218
g139
F0.01
sg140
I1491000115
sg141
F0.5
sg142
I00
sg143
g7
(g11
S'\x00\x00\x00\x00\x00\x004@'
p219
tp220
Rp221
sg147
F0.5
sg148
g7
(g11
S'\x00\x00\x00\x00\x00\x004@'
p222
tp223
Rp224
sg152
F0.01
sg153
F0.5
sg154
g7
(g11
S'\x95\xcf\x17\x02\r"\xd9?'
p225
tp226
Rp227
sg158
I1001
sg159
I50
sg160
I1
sg161
I1
sg162
I100
sg163
F350.0
sg164
F0.9
sg165
I30
sg166
I1
sg167
F6.0
sa(dp228
g139
F0.01
sg140
I1491000139
sg141
F0.5
sg142
I00
sg143
g7
(g11
S'\x00\x00\x00\x00\x00\x004@'
p229
tp230
Rp231
sg147
F0.5
sg148
g7
(g11
S'\x00\x00\x00\x00\x00\x004@'
p232
tp233
Rp234
sg152
F0.01
sg153
F1.0
sg154
g7
(g11
S"\x17\x1e\x84\xcd\x06'\xd9?"
p235
tp236
Rp237
sg158
I1001
sg159
I50
sg160
I1
sg161
I1
sg162
I100
sg163
F350.0
sg164
F0.9
sg165
I30
sg166
I1
sg167
F6.0
sa(dp238
g139
F0.01
sg140
I1491000161
sg141
F0.5
sg142
I00
sg143
g7
(g11
S'\x00\x00\x00\x00\x00\x004@'
p239
tp240
Rp241
sg147
F0.5
sg148
g7
(g11
S'\x00\x00\x00\x00\x00\x004@'
p242
tp243
Rp244
sg152
F0.01
sg153
F2.0
sg154
g7
(g11
S"\x17\x1e\x84\xcd\x06'\xd9?"
p245
tp246
Rp247
sg158
I1001
sg159
I50
sg160
I1
sg161
I1
sg162
I100
sg163
F350.0
sg164
F0.9
sg165
I30
sg166
I1
sg167
F6.0
sa(dp248
g139
F0.01
sg140
I1491000186
sg141
F0.5
sg142
I00
sg143
g7
(g11
S'\x00\x00\x00\x00\x00\x004@'
p249
tp250
Rp251
sg147
F0.5
sg148
g7
(g11
S'\x00\x00\x00\x00\x00\x004@'
p252
tp253
Rp254
sg152
F0.01
sg153
F5.0
sg154
g7
(g11
S'\xb7H\xba^\xd4\xe8\xd8?'
p255
tp256
Rp257
sg158
I1001
sg159
I50
sg160
I1
sg161
I1
sg162
I100
sg163
F350.0
sg164
F0.9
sg165
I30
sg166
I1
sg167
F6.0
sa(dp258
g139
F0.01
sg140
I1491000204
sg141
F0.5
sg142
I00
sg143
g7
(g11
S'\x00\x00\x00\x00\x00\x004@'
p259
tp260
Rp261
sg147
F0.5
sg148
g7
(g11
S'\x00\x00\x00\x00\x00\x004@'
p262
tp263
Rp264
sg152
F0.01
sg153
F10.0
sg154
g7
(g11
S'[\xb2j\xc2\x83\xb0\xd9?'
p265
tp266
Rp267
sg158
I1001
sg159
I50
sg160
I1
sg161
I1
sg162
I100
sg163
F350.0
sg164
F0.9
sg165
I30
sg166
I1
sg167
F6.0
sa(dp268
S'learn_rate'
p269
F0.02
sS'b'
p270
F0.5
sS'shuffle'
p271
I00
sS'successful_storage_rate'
p272
F0.9
sS'err'
p273
g7
(g11
S'\x00\x00\x00\x00\x00\x00\x00\x00'
p274
tp275
Rp276
sS'f'
p277
F0.5
sS'successful_storage'
p278
g7
(g11
S'\x00\x00\x00\x00\x00\x00\x00\x00'
p279
tp280
Rp281
sS'ham_dist_threshold'
p282
F0.01
sS'eps'
p283
I0
sS'N'
p284
I1001
sS'initial_mean'
p285
I1
sS'reapeat_sequence'
p286
I1
sS'initial_variance'
p287
I1
sS'theta'
p288
F350.0
sS'test_length'
p289
I100
sS'test_nb_iter'
p290
I30
sS'nb_iter'
p291
I50
sS'avg_dist'
p292
g7
(g11
S'\x12b\xf4U\x94B\xda?'
p293
tp294
Rp295
sS'id'
p296
I1491001669
sS'gamma'
p297
F6.0
sa(dp298
g269
F0.02
sg270
F0.5
sg271
I00
sg272
F0.9
sg273
g7
(g11
S'\x00\x00\x00\x00\x00\x00\x00\x00'
p299
tp300
Rp301
sg277
F0.5
sg278
g7
(g11
S'\x00\x00\x00\x00\x00\x00\x00\x00'
p302
tp303
Rp304
sg282
F0.01
sg283
F0.01
sg284
I1001
sg285
I1
sg286
I1
sg287
I1
sg288
F350.0
sg289
I100
sg290
I30
sg291
I50
sg292
g7
(g11
S'\x02]\xa3E\x8f\xf1\xd9?'
p305
tp306
Rp307
sg296
I1491001691
sg297
F6.0
sa(dp308
g269
F0.02
sg270
F0.5
sg271
I00
sg272
F0.9
sg273
g7
(g11
S'\x00\x00\x00\x00\x00\x00\x00\x00'
p309
tp310
Rp311
sg277
F0.5
sg278
g7
(g11
S'\x00\x00\x00\x00\x00\x00\x00\x00'
p312
tp313
Rp314
sg282
F0.01
sg283
F0.02
sg284
I1001
sg285
I1
sg286
I1
sg287
I1
sg288
F350.0
sg289
I100
sg290
I30
sg291
I50
sg292
g7
(g11
S'\x1d\xa8\x8fe87\xda?'
p315
tp316
Rp317
sg296
I1491001710
sg297
F6.0
sa(dp318
g269
F0.02
sg270
F0.5
sg271
I00
sg272
F0.9
sg273
g7
(g11
S'\x00\x00\x00\x00\x00\x00\x00\x00'
p319
tp320
Rp321
sg277
F0.5
sg278
g7
(g11
S'\x00\x00\x00\x00\x00\x00\x00\x00'
p322
tp323
Rp324
sg282
F0.01
sg283
F0.05
sg284
I1001
sg285
I1
sg286
I1
sg287
I1
sg288
F350.0
sg289
I100
sg290
I30
sg291
I50
sg292
g7
(g11
S'\x82\x17l EA\xda?'
p325
tp326
Rp327
sg296
I1491001731
sg297
F6.0
sa(dp328
g269
F0.02
sg270
F0.5
sg271
I00
sg272
F0.9
sg273
g7
(g11
S'\x00\x00\x00\x00\x00\x00\x00\x00'
p329
tp330
Rp331
sg277
F0.5
sg278
g7
(g11
S'\x00\x00\x00\x00\x00\x00\x00\x00'
p332
tp333
Rp334
sg282
F0.01
sg283
F0.1
sg284
I1001
sg285
I1
sg286
I1
sg287
I1
sg288
F350.0
sg289
I100
sg290
I30
sg291
I50
sg292
g7
(g11
S'\x13\xdc\xd17\x894\xda?'
p335
tp336
Rp337
sg296
I1491001750
sg297
F6.0
sa(dp338
g269
F0.02
sg270
F0.5
sg271
I00
sg272
F0.9
sg273
g7
(g11
S'\x00\x00\x00\x00\x00\x00\x00\x00'
p339
tp340
Rp341
sg277
F0.5
sg278
g7
(g11
S'\x00\x00\x00\x00\x00\x00\x00\x00'
p342
tp343
Rp344
sg282
F0.01
sg283
F0.2
sg284
I1001
sg285
I1
sg286
I1
sg287
I1
sg288
F350.0
sg289
I100
sg290
I30
sg291
I50
sg292
g7
(g11
S'\xfd\x9bVT\xb2\xce\xd9?'
p345
tp346
Rp347
sg296
I1491001769
sg297
F6.0
sa(dp348
g269
F0.02
sg270
F0.5
sg271
I00
sg272
F0.9
sg273
g7
(g11
S'\x00\x00\x00\x00\x00\x004@'
p349
tp350
Rp351
sg277
F0.5
sg278
g7
(g11
S'\x00\x00\x00\x00\x00\x004@'
p352
tp353
Rp354
sg282
F0.01
sg283
F0.5
sg284
I1001
sg285
I1
sg286
I1
sg287
I1
sg288
F350.0
sg289
I100
sg290
I30
sg291
I50
sg292
g7
(g11
S'u\xf3M<9e\xd9?'
p355
tp356
Rp357
sg296
I1491001789
sg297
F6.0
sa(dp358
g269
F0.02
sg270
F0.5
sg271
I00
sg272
F0.9
sg273
g7
(g11
S'\x00\x00\x00\x00\x00\x004@'
p359
tp360
Rp361
sg277
F0.5
sg278
g7
(g11
S'\x00\x00\x00\x00\x00\x004@'
p362
tp363
Rp364
sg282
F0.01
sg283
F1.0
sg284
I1001
sg285
I1
sg286
I1
sg287
I1
sg288
F350.0
sg289
I100
sg290
I30
sg291
I50
sg292
g7
(g11
S'u\xf3M<9e\xd9?'
p365
tp366
Rp367
sg296
I1491001809
sg297
F6.0
sa(dp368
g269
F0.02
sg270
F0.5
sg271
I00
sg272
F0.9
sg273
g7
(g11
S'\x00\x00\x00\x00\x00\x004@'
p369
tp370
Rp371
sg277
F0.5
sg278
g7
(g11
S'\x00\x00\x00\x00\x00\x004@'
p372
tp373
Rp374
sg282
F0.01
sg283
F2.0
sg284
I1001
sg285
I1
sg286
I1
sg287
I1
sg288
F350.0
sg289
I100
sg290
I30
sg291
I50
sg292
g7
(g11
S'u\xf3M<9e\xd9?'
p375
tp376
Rp377
sg296
I1491001827
sg297
F6.0
sa(dp378
g269
F0.02
sg270
F0.5
sg271
I00
sg272
F0.9
sg273
g7
(g11
S'\x00\x00\x00\x00\x00\x00\x00\x00'
p379
tp380
Rp381
sg277
F0.5
sg278
g7
(g11
S'\x00\x00\x00\x00\x00\x00\x00\x00'
p382
tp383
Rp384
sg282
F0.01
sg283
F5.0
sg284
I1001
sg285
I1
sg286
I1
sg287
I1
sg288
F350.0
sg289
I100
sg290
I30
sg291
I50
sg292
g7
(g11
S'\xea\xdc\xe5\xba"\xfd\xd7?'
p385
tp386
Rp387
sg296
I1491001845
sg297
F6.0
sa(dp388
g269
F0.02
sg270
F0.5
sg271
I00
sg272
F0.9
sg273
g7
(g11
S'\x00\x00\x00\x00\x00\x004@'
p389
tp390
Rp391
sg277
F0.5
sg278
g7
(g11
S'\x00\x00\x00\x00\x00\x004@'
p392
tp393
Rp394
sg282
F0.01
sg283
F10.0
sg284
I1001
sg285
I1
sg286
I1
sg287
I1
sg288
F350.0
sg289
I100
sg290
I30
sg291
I50
sg292
g7
(g11
S'e\x05\xb3\xa4\x1c\x10\xd9?'
p395
tp396
Rp397
sg296
I1491001865
sg297
F6.0
sa(dp398
S'learn_rate'
p399
F0.01
sS'b'
p400
F0.5
sS'shuffle'
p401
I00
sS'err'
p402
g7
(g11
S'\x00\x00\x00\x00\x00\x00\x00\x00'
p403
tp404
Rp405
sS'f'
p406
F0.5
sS'test_nb_iter'
p407
I30
sS'successful_storage'
p408
g7
(g11
S'\x00\x00\x00\x00\x00\x00\x00\x00'
p409
tp410
Rp411
sS'ham_dist_threshold'
p412
F0.01
sS'eps'
p413
I0
sS'id'
p414
I1491002089
sS'N'
p415
I1001
sS'nb_iter'
p416
I50
sS'initial_mean'
p417
I1
sS'initial_variance'
p418
I1
sS'test_length'
p419
I100
sS'theta'
p420
F350.0
sS'successful_storage_rate'
p421
F0.9
sS'avg_dist'
p422
g7
(g11
S'{\xe1Y!7\xa6\xdb?'
p423
tp424
Rp425
sS'reapeat_sequence'
p426
I1
sS'gamma'
p427
F3.0
sa(dp428
g399
F0.01
sg400
F0.5
sg401
I00
sg402
g7
(g11
S'\x00\x00\x00\x00\x00\x00\x00\x00'
p429
tp430
Rp431
sg406
F0.5
sg407
I30
sg408
g7
(g11
S'\x00\x00\x00\x00\x00\x00\x00\x00'
p432
tp433
Rp434
sg412
F0.01
sg413
F0.01
sg414
I1491002109
sg415
I1001
sg416
I50
sg417
I1
sg418
I1
sg419
I100
sg420
F350.0
sg421
F0.9
sg422
g7
(g11
S' \xb96\xc1_V\xdb?'
p435
tp436
Rp437
sg426
I1
sg427
F3.0
sa(dp438
g399
F0.01
sg400
F0.5
sg401
I00
sg402
g7
(g11
S'\x00\x00\x00\x00\x00\x00\x00\x00'
p439
tp440
Rp441
sg406
F0.5
sg407
I30
sg408
g7
(g11
S'\x00\x00\x00\x00\x00\x00\x00\x00'
p442
tp443
Rp444
sg412
F0.01
sg413
F0.02
sg414
I1491002126
sg415
I1001
sg416
I50
sg417
I1
sg418
I1
sg419
I100
sg420
F350.0
sg421
F0.9
sg422
g7
(g11
S'Cn2K\x96\xa9\xdb?'
p445
tp446
Rp447
sg426
I1
sg427
F3.0
sa(dp448
g399
F0.01
sg400
F0.5
sg401
I00
sg402
g7
(g11
S'\x00\x00\x00\x00\x00\x00\x00\x00'
p449
tp450
Rp451
sg406
F0.5
sg407
I30
sg408
g7
(g11
S'\x00\x00\x00\x00\x00\x00\x00\x00'
p452
tp453
Rp454
sg412
F0.01
sg413
F0.05
sg414
I1491002144
sg415
I1001
sg416
I50
sg417
I1
sg418
I1
sg419
I100
sg420
F350.0
sg421
F0.9
sg422
g7
(g11
S'\xaa\x1d\xe0_WV\xdb?'
p455
tp456
Rp457
sg426
I1
sg427
F3.0
sa(dp458
g399
F0.01
sg400
F0.5
sg401
I00
sg402
g7
(g11
S'\x00\x00\x00\x00\x00\x00\x00\x00'
p459
tp460
Rp461
sg406
F0.5
sg407
I30
sg408
g7
(g11
S'\x00\x00\x00\x00\x00\x00\x00\x00'
p462
tp463
Rp464
sg412
F0.01
sg413
F0.1
sg414
I1491002162
sg415
I1001
sg416
I50
sg417
I1
sg418
I1
sg419
I100
sg420
F350.0
sg421
F0.9
sg422
g7
(g11
S'\xe3S\xeb\x17Q<\xdb?'
p465
tp466
Rp467
sg426
I1
sg427
F3.0
sa(dp468
g399
F0.01
sg400
F0.5
sg401
I00
sg402
g7
(g11
S'\x00\x00\x00\x00\x00\x00\x00\x00'
p469
tp470
Rp471
sg406
F0.5
sg407
I30
sg408
g7
(g11
S'\x00\x00\x00\x00\x00\x00\x00\x00'
p472
tp473
Rp474
sg412
F0.01
sg413
F0.2
sg414
I1491002181
sg415
I1001
sg416
I50
sg417
I1
sg418
I1
sg419
I100
sg420
F350.0
sg421
F0.9
sg422
g7
(g11
S'\xdd\xe8b\x08\xd9-\xdb?'
p475
tp476
Rp477
sg426
I1
sg427
F3.0
sa(dp478
g399
F0.01
sg400
F0.5
sg401
I00
sg402
g7
(g11
S'\x00\x00\x00\x00\x00\x004@'
p479
tp480
Rp481
sg406
F0.5
sg407
I30
sg408
g7
(g11
S'\x00\x00\x00\x00\x00\x004@'
p482
tp483
Rp484
sg412
F0.01
sg413
F0.5
sg414
I1491002199
sg415
I1001
sg416
I50
sg417
I1
sg418
I1
sg419
I100
sg420
F350.0
sg421
F0.9
sg422
g7
(g11
S'\xa6C\x1f\x03\x82\x0e\xd9?'
p485
tp486
Rp487
sg426
I1
sg427
F3.0
sa(dp488
g399
F0.01
sg400
F0.5
sg401
I00
sg402
g7
(g11
S'\x00\x00\x00\x00\x00\x004@'
p489
tp490
Rp491
sg406
F0.5
sg407
I30
sg408
g7
(g11
S'\x00\x00\x00\x00\x00\x004@'
p492
tp493
Rp494
sg412
F0.01
sg413
F1.0
sg414
I1491002221
sg415
I1001
sg416
I50
sg417
I1
sg418
I1
sg419
I100
sg420
F350.0
sg421
F0.9
sg422
g7
(g11
S'ks\xab\x88\xd0\x1f\xda?'
p495
tp496
Rp497
sg426
I1
sg427
F3.0
sa(dp498
g399
F0.01
sg400
F0.5
sg401
I00
sg402
g7
(g11
S'\x00\x00\x00\x00\x00\x00\x00\x00'
p499
tp500
Rp501
sg406
F0.5
sg407
I30
sg408
g7
(g11
S'\x00\x00\x00\x00\x00\x00\x00\x00'
p502
tp503
Rp504
sg412
F0.01
sg413
F2.0
sg414
I1491002243
sg415
I1001
sg416
I50
sg417
I1
sg418
I1
sg419
I100
sg420
F350.0
sg421
F0.9
sg422
g7
(g11
S'j\x85\x10\xf1\xb3\xca\xd9?'
p505
tp506
Rp507
sg426
I1
sg427
F3.0
sa(dp508
g399
F0.01
sg400
F0.5
sg401
I00
sg402
g7
(g11
S'\x00\x00\x00\x00\x00\x004@'
p509
tp510
Rp511
sg406
F0.5
sg407
I30
sg408
g7
(g11
S'\x00\x00\x00\x00\x00\x004@'
p512
tp513
Rp514
sg412
F0.01
sg413
F5.0
sg414
I1491002262
sg415
I1001
sg416
I50
sg417
I1
sg418
I1
sg419
I100
sg420
F350.0
sg421
F0.9
sg422
g7
(g11
S'\xaa~\xa40\xad^\xd9?'
p515
tp516
Rp517
sg426
I1
sg427
F3.0
sa(dp518
g399
F0.01
sg400
F0.5
sg401
I00
sg402
g7
(g11
S'\x00\x00\x00\x00\x00\x004@'
p519
tp520
Rp521
sg406
F0.5
sg407
I30
sg408
g7
(g11
S'\x00\x00\x00\x00\x00\x004@'
p522
tp523
Rp524
sg412
F0.01
sg413
F10.0
sg414
I1491002284
sg415
I1001
sg416
I50
sg417
I1
sg418
I1
sg419
I100
sg420
F350.0
sg421
F0.9
sg422
g7
(g11
S'\xda\t\xfb$!X\xd9?'
p525
tp526
Rp527
sg426
I1
sg427
F3.0
sa(dp528
S'learn_rate'
p529
F0.005
sS'id'
p530
I1491000252
sS'b'
p531
F0.5
sS'shuffle'
p532
I00
sS'err'
p533
g7
(g11
S'\x00\x00\x00\x00\x00\x00\x00\x00'
p534
tp535
Rp536
sS'f'
p537
F0.5
sS'successful_storage'
p538
g7
(g11
S'\x00\x00\x00\x00\x00\x00\x00\x00'
p539
tp540
Rp541
sS'ham_dist_threshold'
p542
F0.01
sS'eps'
p543
I0
sS'avg_dist'
p544
g7
(g11
S'\x1dW\xe3W\x97\x9c\xdb?'
p545
tp546
Rp547
sS'N'
p548
I1001
sS'nb_iter'
p549
I50
sS'initial_mean'
p550
I1
sS'initial_variance'
p551
I1
sS'test_length'
p552
I100
sS'theta'
p553
F350.0
sS'successful_storage_rate'
p554
F0.9
sS'test_nb_iter'
p555
I30
sS'reapeat_sequence'
p556
I1
sS'gamma'
p557
F6.0
sa(dp558
g529
F0.005
sg530
I1491000269
sg531
F0.5
sg532
I00
sg533
g7
(g11
S'\x00\x00\x00\x00\x00\x00\x00\x00'
p559
tp560
Rp561
sg537
F0.5
sg538
g7
(g11
S'\x00\x00\x00\x00\x00\x00\x00\x00'
p562
tp563
Rp564
sg542
F0.01
sg543
F0.01
sg544
g7
(g11
S'@\xbaH\xe1`h\xdb?'
p565
tp566
Rp567
sg548
I1001
sg549
I50
sg550
I1
sg551
I1
sg552
I100
sg553
F350.0
sg554
F0.9
sg555
I30
sg556
I1
sg557
F6.0
sa(dp568
g529
F0.005
sg530
I1491000286
sg531
F0.5
sg532
I00
sg533
g7
(g11
S'\x00\x00\x00\x00\x00\x00\x00\x00'
p569
tp570
Rp571
sg537
F0.5
sg538
g7
(g11
S'\x00\x00\x00\x00\x00\x00\x00\x00'
p572
tp573
Rp574
sg542
F0.01
sg543
F0.02
sg544
g7
(g11
S'\x16\xa4r\x93L\\\xdb?'
p575
tp576
Rp577
sg548
I1001
sg549
I50
sg550
I1
sg551
I1
sg552
I100
sg553
F350.0
sg554
F0.9
sg555
I30
sg556
I1
sg557
F6.0
sa(dp578
g529
F0.005
sg530
I1491000307
sg531
F0.5
sg532
I00
sg533
g7
(g11
S'\x00\x00\x00\x00\x00\x00\x00\x00'
p579
tp580
Rp581
sg537
F0.5
sg538
g7
(g11
S'\x00\x00\x00\x00\x00\x00\x00\x00'
p582
tp583
Rp584
sg542
F0.01
sg543
F0.05
sg544
g7
(g11
S'N\x00\x89\x96\xab!\xdb?'
p585
tp586
Rp587
sg548
I1001
sg549
I50
sg550
I1
sg551
I1
sg552
I100
sg553
F350.0
sg554
F0.9
sg555
I30
sg556
I1
sg557
F6.0
sa(dp588
g529
F0.005
sg530
I1491000325
sg531
F0.5
sg532
I00
sg533
g7
(g11
S'\x00\x00\x00\x00\x00\x00\x00\x00'
p589
tp590
Rp591
sg537
F0.5
sg538
g7
(g11
S'\x00\x00\x00\x00\x00\x00\x00\x00'
p592
tp593
Rp594
sg542
F0.01
sg543
F0.1
sg544
g7
(g11
S'\xc5\x14\x9f\x8e\x17N\xdb?'
p595
tp596
Rp597
sg548
I1001
sg549
I50
sg550
I1
sg551
I1
sg552
I100
sg553
F350.0
sg554
F0.9
sg555
I30
sg556
I1
sg557
F6.0
sa(dp598
g529
F0.005
sg530
I1491000343
sg531
F0.5
sg532
I00
sg533
g7
(g11
S'\x00\x00\x00\x00\x00\x00\x00\x00'
p599
tp600
Rp601
sg537
F0.5
sg538
g7
(g11
S'\x00\x00\x00\x00\x00\x00\x00\x00'
p602
tp603
Rp604
sg542
F0.01
sg543
F0.2
sg544
g7
(g11
S'e\xf9\xde\xb5\xe7\xdf\xda?'
p605
tp606
Rp607
sg548
I1001
sg549
I50
sg550
I1
sg551
I1
sg552
I100
sg553
F350.0
sg554
F0.9
sg555
I30
sg556
I1
sg557
F6.0
sa(dp608
g529
F0.005
sg530
I1491000363
sg531
F0.5
sg532
I00
sg533
g7
(g11
S'0333333@'
p609
tp610
Rp611
sg537
F0.5
sg538
g7
(g11
S'\x00\x00\x00\x00\x00\x004@'
p612
tp613
Rp614
sg542
F0.01
sg543
F0.5
sg544
g7
(g11
S'\x03\xa4F\xad<\xfb\xd7?'
p615
tp616
Rp617
sg548
I1001
sg549
I50
sg550
I1
sg551
I1
sg552
I100
sg553
F350.0
sg554
F0.9
sg555
I30
sg556
I1
sg557
F6.0
sa(dp618
g529
F0.005
sg530
I1491000385
sg531
F0.5
sg532
I00
sg533
g7
(g11
S'\x00\x00\x00\x00\x00\x004@'
p619
tp620
Rp621
sg537
F0.5
sg538
g7
(g11
S'\x00\x00\x00\x00\x00\x004@'
p622
tp623
Rp624
sg542
F0.01
sg543
F1.0
sg544
g7
(g11
S'*\x83\xec\xb0\xb1\xa6\xd9?'
p625
tp626
Rp627
sg548
I1001
sg549
I50
sg550
I1
sg551
I1
sg552
I100
sg553
F350.0
sg554
F0.9
sg555
I30
sg556
I1
sg557
F6.0
sa(dp628
g529
F0.005
sg530
I1491000402
sg531
F0.5
sg532
I00
sg533
g7
(g11
S'\x00\x00\x00\x00\x00\x004@'
p629
tp630
Rp631
sg537
F0.5
sg538
g7
(g11
S'\x00\x00\x00\x00\x00\x004@'
p632
tp633
Rp634
sg542
F0.01
sg543
F2.0
sg544
g7
(g11
S'*\x83\xec\xb0\xb1\xa6\xd9?'
p635
tp636
Rp637
sg548
I1001
sg549
I50
sg550
I1
sg551
I1
sg552
I100
sg553
F350.0
sg554
F0.9
sg555
I30
sg556
I1
sg557
F6.0
sa(dp638
g529
F0.005
sg530
I1491000421
sg531
F0.5
sg532
I00
sg533
g7
(g11
S'\x00\x00\x00\x00\x00\x00\x00\x00'
p639
tp640
Rp641
sg537
F0.5
sg538
g7
(g11
S'\x00\x00\x00\x00\x00\x00\x00\x00'
p642
tp643
Rp644
sg542
F0.01
sg543
F5.0
sg544
g7
(g11
S'\xfeJ\xde\x9e\xd6\x0c\xd9?'
p645
tp646
Rp647
sg548
I1001
sg549
I50
sg550
I1
sg551
I1
sg552
I100
sg553
F350.0
sg554
F0.9
sg555
I30
sg556
I1
sg557
F6.0
sa(dp648
g529
F0.005
sg530
I1491000441
sg531
F0.5
sg532
I00
sg533
g7
(g11
S'\x00\x00\x00\x00\x00\x00\x00\x00'
p649
tp650
Rp651
sg537
F0.5
sg538
g7
(g11
S'\x00\x00\x00\x00\x00\x00\x00\x00'
p652
tp653
Rp654
sg542
F0.01
sg543
F10.0
sg544
g7
(g11
S'\xca\x9b\x02AmH\xd8?'
p655
tp656
Rp657
sg548
I1001
sg549
I50
sg550
I1
sg551
I1
sg552
I100
sg553
F350.0
sg554
F0.9
sg555
I30
sg556
I1
sg557
F6.0
sa(dp658
S'learn_rate'
p659
F0.002
sS'b'
p660
F0.5
sS'shuffle'
p661
I00
sS'successful_storage_rate'
p662
F0.9
sS'err'
p663
g7
(g11
S'\x00\x00\x00\x00\x00\x00\x00\x00'
p664
tp665
Rp666
sS'f'
p667
F0.5
sS'successful_storage'
p668
g7
(g11
S'\x00\x00\x00\x00\x00\x00\x00\x00'
p669
tp670
Rp671
sS'ham_dist_threshold'
p672
F0.01
sS'eps'
p673
I0
sS'N'
p674
I1001
sS'initial_mean'
p675
I1
sS'reapeat_sequence'
p676
I1
sS'initial_variance'
p677
I1
sS'theta'
p678
F350.0
sS'test_length'
p679
I100
sS'test_nb_iter'
p680
I30
sS'nb_iter'
p681
I50
sS'avg_dist'
p682
g7
(g11
S'\xd2K@&\x98\x9a\xdb?'
p683
tp684
Rp685
sS'id'
p686
I1491000983
sS'gamma'
p687
F6.0
sa(dp688
g659
F0.002
sg660
F0.5
sg661
I00
sg662
F0.9
sg663
g7
(g11
S'\x00\x00\x00\x00\x00\x00\x00\x00'
p689
tp690
Rp691
sg667
F0.5
sg668
g7
(g11
S'\x00\x00\x00\x00\x00\x00\x00\x00'
p692
tp693
Rp694
sg672
F0.01
sg673
F0.01
sg674
I1001
sg675
I1
sg676
I1
sg677
I1
sg678
F350.0
sg679
I100
sg680
I30
sg681
I50
sg682
g7
(g11
S'\x9a+\xcd\x9b\xf5\xea\xdb?'
p695
tp696
Rp697
sg686
I1491001004
sg687
F6.0
sa(dp698
g659
F0.002
sg660
F0.5
sg661
I00
sg662
F0.9
sg663
g7
(g11
S'\x00\x00\x00\x00\x00\x00\x00\x00'
p699
tp700
Rp701
sg667
F0.5
sg668
g7
(g11
S'\x00\x00\x00\x00\x00\x00\x00\x00'
p702
tp703
Rp704
sg672
F0.01
sg673
F0.02
sg674
I1001
sg675
I1
sg676
I1
sg677
I1
sg678
F350.0
sg679
I100
sg680
I30
sg681
I50
sg682
g7
(g11
S'N *j\xf6\xe8\xdb?'
p705
tp706
Rp707
sg686
I1491001026
sg687
F6.0
sa(dp708
g659
F0.002
sg660
F0.5
sg661
I00
sg662
F0.9
sg663
g7
(g11
S'\x00\x00\x00\x00\x00\x00\x00\x00'
p709
tp710
Rp711
sg667
F0.5
sg668
g7
(g11
S'\x00\x00\x00\x00\x00\x00\x00\x00'
p712
tp713
Rp714
sg672
F0.01
sg673
F0.05
sg674
I1001
sg675
I1
sg676
I1
sg677
I1
sg678
F350.0
sg679
I100
sg680
I30
sg681
I50
sg682
g7
(g11
S'\xa8\xd1$$\xe6\xd2\xdb?'
p715
tp716
Rp717
sg686
I1491001052
sg687
F6.0
sa(dp718
g659
F0.002
sg660
F0.5
sg661
I00
sg662
F0.9
sg663
g7
(g11
S'\x00\x00\x00\x00\x00\x00\x00\x00'
p719
tp720
Rp721
sg667
F0.5
sg668
g7
(g11
S'\x00\x00\x00\x00\x00\x00\x00\x00'
p722
tp723
Rp724
sg672
F0.01
sg673
F0.1
sg674
I1001
sg675
I1
sg676
I1
sg677
I1
sg678
F350.0
sg679
I100
sg680
I30
sg681
I50
sg682
g7
(g11
S'\xda$a\xdb\xee~\xdb?'
p725
tp726
Rp727
sg686
I1491001078
sg687
F6.0
sa(dp728
g659
F0.002
sg660
F0.5
sg661
I00
sg662
F0.9
sg663
g7
(g11
S'\x00\x00\x00\x00\x00\x00\x00\x00'
p729
tp730
Rp731
sg667
F0.5
sg668
g7
(g11
S'\x00\x00\x00\x00\x00\x00\x00\x00'
p732
tp733
Rp734
sg672
F0.01
sg673
F0.2
sg674
I1001
sg675
I1
sg676
I1
sg677
I1
sg678
F350.0
sg679
I100
sg680
I30
sg681
I50
sg682
g7
(g11
S'\x00\x01+\xa1\xc2;\xdb?'
p735
tp736
Rp737
sg686
I1491001097
sg687
F6.0
sa(dp738
g659
F0.002
sg660
F0.5
sg661
I00
sg662
F0.9
sg663
g7
(g11
S'\x00\x00\x00\x00\x00\x00\x00\x00'
p739
tp740
Rp741
sg667
F0.5
sg668
g7
(g11
S'\x00\x00\x00\x00\x00\x00\x00\x00'
p742
tp743
Rp744
sg672
F0.01
sg673
F0.5
sg674
I1001
sg675
I1
sg676
I1
sg677
I1
sg678
F350.0
sg679
I100
sg680
I30
sg681
I50
sg682
g7
(g11
S'\xc3\x1a\xae\xab\xd8*\xda?'
p745
tp746
Rp747
sg686
I1491001117
sg687
F6.0
sa(dp748
g659
F0.002
sg660
F0.5
sg661
I00
sg662
F0.9
sg663
g7
(g11
S'\x00\x00\x00\x00\x00\x004@'
p749
tp750
Rp751
sg667
F0.5
sg668
g7
(g11
S'\x00\x00\x00\x00\x00\x004@'
p752
tp753
Rp754
sg672
F0.01
sg673
F1.0
sg674
I1001
sg675
I1
sg676
I1
sg677
I1
sg678
F350.0
sg679
I100
sg680
I30
sg681
I50
sg682
g7
(g11
S'\x12q\xdd\xbe\xab8\xd9?'
p755
tp756
Rp757
sg686
I1491001136
sg687
F6.0
sa(dp758
g659
F0.002
sg660
F0.5
sg661
I00
sg662
F0.9
sg663
g7
(g11
S'\x00\x00\x00\x00\x00\x00\x00\x00'
p759
tp760
Rp761
sg667
F0.5
sg668
g7
(g11
S'\x00\x00\x00\x00\x00\x00\x00\x00'
p762
tp763
Rp764
sg672
F0.01
sg673
F2.0
sg674
I1001
sg675
I1
sg676
I1
sg677
I1
sg678
F350.0
sg679
I100
sg680
I30
sg681
I50
sg682
g7
(g11
S'B\xeb\xf8\xc0]\x00\xd9?'
p765
tp766
Rp767
sg686
I1491001154
sg687
F6.0
sa(dp768
g659
F0.002
sg660
F0.5
sg661
I00
sg662
F0.9
sg663
g7
(g11
S'\x00\x00\x00\x00\x00\x00\x00\x00'
p769
tp770
Rp771
sg667
F0.5
sg668
g7
(g11
S'\x00\x00\x00\x00\x00\x00\x00\x00'
p772
tp773
Rp774
sg672
F0.01
sg673
F5.0
sg674
I1001
sg675
I1
sg676
I1
sg677
I1
sg678
F350.0
sg679
I100
sg680
I30
sg681
I50
sg682
g7
(g11
S'\xfe`\x83"_\xb9\xd4?'
p775
tp776
Rp777
sg686
I1491001176
sg687
F6.0
sa(dp778
g659
F0.002
sg660
F0.5
sg661
I00
sg662
F0.9
sg663
g7
(g11
S'\x00\x00\x00\x00\x00\x00\x00\x00'
p779
tp780
Rp781
sg667
F0.5
sg668
g7
(g11
S'\x00\x00\x00\x00\x00\x00\x00\x00'
p782
tp783
Rp784
sg672
F0.01
sg673
F10.0
sg674
I1001
sg675
I1
sg676
I1
sg677
I1
sg678
F350.0
sg679
I100
sg680
I30
sg681
I50
sg682
g7
(g11
S'\xd8\xab\xe2\xf2\x81\xa1\xd4?'
p785
tp786
Rp787
sg686
I1491001194
sg687
F6.0
sa(dp788
S'learn_rate'
p789
F0.01
sS'id'
p790
I1491002735
sS'b'
p791
F0.5
sS'shuffle'
p792
I00
sS'successful_storage'
p793
g7
(g11
S'\x00\x00\x00\x00\x00\x00\x00\x00'
p794
tp795
Rp796
sS'err'
p797
g7
(g11
S'\x00\x00\x00\x00\x00\x00\x00\x00'
p798
tp799
Rp800
sS'f'
p801
F0.5
sS'reapeat_sequence'
p802
I1
sS'ham_dist_threshold'
p803
F0.01
sS'eps'
p804
I0
sS'avg_dist'
p805
g7
(g11
S'{\xe4\x0e]D2\xdb?'
p806
tp807
Rp808
sS'N'
p809
I1001
sS'initial_mean'
p810
I1
sS'initial_variance'
p811
I1
sS'test_length'
p812
I100
sS'theta'
p813
F350.0
sS'nb_iter'
p814
I50
sS'test_nb_iter'
p815
I30
sS'successful_storage_rate'
p816
F0.9
sS'gamma'
p817
F12.0
sa(dp818
g789
F0.01
sg790
I1491002758
sg791
F0.5
sg792
I00
sg793
g7
(g11
S'\x00\x00\x00\x00\x00\x00\x00\x00'
p819
tp820
Rp821
sg797
g7
(g11
S'\x00\x00\x00\x00\x00\x00\x00\x00'
p822
tp823
Rp824
sg801
F0.5
sg802
I1
sg803
F0.01
sg804
F0.01
sg805
g7
(g11
S'z\xe6\xa5M\xc0\xf8\xda?'
p825
tp826
Rp827
sg809
I1001
sg810
I1
sg811
I1
sg812
I100
sg813
F350.0
sg814
I50
sg815
I30
sg816
F0.9
sg817
F12.0
sa(dp828
g789
F0.01
sg790
I1491002779
sg791
F0.5
sg792
I00
sg793
g7
(g11
S'\x00\x00\x00\x00\x00\x00\x00\x00'
p829
tp830
Rp831
sg797
g7
(g11
S'\x00\x00\x00\x00\x00\x00\x00\x00'
p832
tp833
Rp834
sg801
F0.5
sg802
I1
sg803
F0.01
sg804
F0.02
sg805
g7
(g11
S'z\xe7\xc3\x98Q\xbe\xda?'
p835
tp836
Rp837
sg809
I1001
sg810
I1
sg811
I1
sg812
I100
sg813
F350.0
sg814
I50
sg815
I30
sg816
F0.9
sg817
F12.0
sa(dp838
g789
F0.01
sg790
I1491002799
sg791
F0.5
sg792
I00
sg793
g7
(g11
S'\x00\x00\x00\x00\x00\x00\x00\x00'
p839
tp840
Rp841
sg797
g7
(g11
S'\x00\x00\x00\x00\x00\x00\x00\x00'
p842
tp843
Rp844
sg801
F0.5
sg802
I1
sg803
F0.01
sg804
F0.05
sg805
g7
(g11
S'\xc8\xcc[\x7f\xeb\xe0\xda?'
p845
tp846
Rp847
sg809
I1001
sg810
I1
sg811
I1
sg812
I100
sg813
F350.0
sg814
I50
sg815
I30
sg816
F0.9
sg817
F12.0
sa(dp848
g789
F0.01
sg790
I1491002829
sg791
F0.5
sg792
I00
sg793
g7
(g11
S'\x00\x00\x00\x00\x00\x00\x00\x00'
p849
tp850
Rp851
sg797
g7
(g11
S'\x00\x00\x00\x00\x00\x00\x00\x00'
p852
tp853
Rp854
sg801
F0.5
sg802
I1
sg803
F0.01
sg804
F0.1
sg805
g7
(g11
S'3\xc3\x1dI;\x83\xda?'
p855
tp856
Rp857
sg809
I1001
sg810
I1
sg811
I1
sg812
I100
sg813
F350.0
sg814
I50
sg815
I30
sg816
F0.9
sg817
F12.0
sa(dp858
g789
F0.01
sg790
I1491002866
sg791
F0.5
sg792
I00
sg793
g7
(g11
S'\x00\x00\x00\x00\x00\x00\x00\x00'
p859
tp860
Rp861
sg797
g7
(g11
S'\x00\x00\x00\x00\x00\x00\x00\x00'
p862
tp863
Rp864
sg801
F0.5
sg802
I1
sg803
F0.01
sg804
F0.2
sg805
g7
(g11
S'\x1a\xf3,V\x18\xf5\xd9?'
p865
tp866
Rp867
sg809
I1001
sg810
I1
sg811
I1
sg812
I100
sg813
F350.0
sg814
I50
sg815
I30
sg816
F0.9
sg817
F12.0
sa(dp868
g789
F0.01
sg790
I1491002908
sg791
F0.5
sg792
I00
sg793
g7
(g11
S'\x00\x00\x00\x00\x00\x004@'
p869
tp870
Rp871
sg797
g7
(g11
S'\x00\x00\x00\x00\x00\x004@'
p872
tp873
Rp874
sg801
F0.5
sg802
I1
sg803
F0.01
sg804
F0.5
sg805
g7
(g11
S'+z\\\xb0\xa8\x16\xd9?'
p875
tp876
Rp877
sg809
I1001
sg810
I1
sg811
I1
sg812
I100
sg813
F350.0
sg814
I50
sg815
I30
sg816
F0.9
sg817
F12.0
sa(dp878
g789
F0.01
sg790
I1491002943
sg791
F0.5
sg792
I00
sg793
g7
(g11
S'\x00\x00\x00\x00\x00\x004@'
p879
tp880
Rp881
sg797
g7
(g11
S'\x00\x00\x00\x00\x00\x004@'
p882
tp883
Rp884
sg801
F0.5
sg802
I1
sg803
F0.01
sg804
F1.0
sg805
g7
(g11
S'+z\\\xb0\xa8\x16\xd9?'
p885
tp886
Rp887
sg809
I1001
sg810
I1
sg811
I1
sg812
I100
sg813
F350.0
sg814
I50
sg815
I30
sg816
F0.9
sg817
F12.0
sa(dp888
g789
F0.01
sg790
I1491002985
sg791
F0.5
sg792
I00
sg793
g7
(g11
S'\x00\x00\x00\x00\x00\x004@'
p889
tp890
Rp891
sg797
g7
(g11
S'\x00\x00\x00\x00\x00\x004@'
p892
tp893
Rp894
sg801
F0.5
sg802
I1
sg803
F0.01
sg804
F2.0
sg805
g7
(g11
S'+z\\\xb0\xa8\x16\xd9?'
p895
tp896
Rp897
sg809
I1001
sg810
I1
sg811
I1
sg812
I100
sg813
F350.0
sg814
I50
sg815
I30
sg816
F0.9
sg817
F12.0
sa(dp898
g789
F0.01
sg790
I1491003024
sg791
F0.5
sg792
I00
sg793
g7
(g11
S'\x00\x00\x00\x00\x00\x004@'
p899
tp900
Rp901
sg797
g7
(g11
S'\x00\x00\x00\x00\x00\x004@'
p902
tp903
Rp904
sg801
F0.5
sg802
I1
sg803
F0.01
sg804
F5.0
sg805
g7
(g11
S'+z\\\xb0\xa8\x16\xd9?'
p905
tp906
Rp907
sg809
I1001
sg810
I1
sg811
I1
sg812
I100
sg813
F350.0
sg814
I50
sg815
I30
sg816
F0.9
sg817
F12.0
sa(dp908
g789
F0.01
sg790
I1491003055
sg791
F0.5
sg792
I00
sg793
g7
(g11
S'\x00\x00\x00\x00\x00\x004@'
p909
tp910
Rp911
sg797
g7
(g11
S'\x00\x00\x00\x00\x00\x004@'
p912
tp913
Rp914
sg801
F0.5
sg802
I1
sg803
F0.01
sg804
F10.0
sg805
g7
(g11
S'\xd3XU\xa9\x17\xb7\xd6?'
p915
tp916
Rp917
sg809
I1001
sg810
I1
sg811
I1
sg812
I100
sg813
F350.0
sg814
I50
sg815
I30
sg816
F0.9
sg817
F12.0
sa.