(lp0
(I1491009344
(dp1
S'learn_rate'
p2
F0.01
sS'b'
p3
F0.5
sS'shuffle'
p4
I00
sS'f'
p5
F0.5
sS'reapeat_sequence'
p6
I1
sS'ham_dist_threshold'
p7
F0.01
sS'eps'
p8
I0
sS'N'
p9
I1001
sS'initial_mean'
p10
I1
sS'nbr_patterns'
p11
I5
sS'initial_variance'
p12
I1
sS'test_length'
p13
I100
sS'theta'
p14
F350.0
sS'nb_iter'
p15
I50
sS'test_nb_iter'
p16
I30
sS'successful_storage_rate'
p17
F0.9
sS'gamma'
p18
F6.0
s(dp19
S'successful_storage'
p20
cnumpy.core.multiarray
scalar
p21
(cnumpy
dtype
p22
(S'f8'
p23
I0
I1
tp24
Rp25
(I3
S'<'
p26
NNNI-1
I-1
I0
tp27
bS'\x00\x00\x00\x00\x00\x00\x00\x00'
p28
tp29
Rp30
sS'avg_dist'
p31
g21
(g25
S'\xbdk\xdc\x15gc\xdb?'
p32
tp33
Rp34
sS'err'
p35
g21
(g25
S'\x00\x00\x00\x00\x00\x00\x00\x00'
p36
tp37
Rp38
stp39
a(I1491009363
(dp40
g2
F0.01
sg3
F0.5
sg4
I00
sg5
F0.5
sg6
I1
sg7
F0.01
sg8
F0.2
sg9
I1001
sg10
I1
sg11
I5
sg12
I1
sg13
I100
sg14
F350.0
sg15
I50
sg16
I30
sg17
F0.9
sg18
F6.0
s(dp41
g20
g21
(g25
S'\x00\x00\x00\x00\x00\x00\x00\x00'
p42
tp43
Rp44
sg31
g21
(g25
S'\xae\x81\x14\x05\xe9_\xda?'
p45
tp46
Rp47
sg35
g21
(g25
S'\x00\x00\x00\x00\x00\x00\x00\x00'
p48
tp49
Rp50
stp51
a(I1491009383
(dp52
g2
F0.01
sg3
F0.5
sg4
I00
sg5
F0.5
sg6
I1
sg7
F0.01
sg8
F0.9
sg9
I1001
sg10
I1
sg11
I5
sg12
I1
sg13
I100
sg14
F350.0
sg15
I50
sg16
I30
sg17
F0.9
sg18
F6.0
s(dp53
g20
g21
(g25
S'\x9a\x99\x99\x99\x99\x99\xc9?'
p54
tp55
Rp56
sg31
g21
(g25
S'\xc86U\xf6\xf0=\xd9?'
p57
tp58
Rp59
sg35
g21
(g25
S'\x98\x99\x99\x99\x99\x99\xc9?'
p60
tp61
Rp62
stp63
a(I1491009435
(dp64
S'learn_rate'
p65
F0.01
sS'b'
p66
F0.5
sS'shuffle'
p67
I00
sS'f'
p68
F0.5
sS'reapeat_sequence'
p69
I1
sS'ham_dist_threshold'
p70
F0.01
sS'eps'
p71
F0.3
sS'N'
p72
I1001
sS'nbr_patterns'
p73
I5
sS'initial_variance'
p74
I1
sS'theta'
p75
F350.0
sS'test_length'
p76
I100
sS'initial_mean'
p77
I1
sS'nb_iter'
p78
I50
sS'test_nb_iter'
p79
I30
sS'successful_storage_rate'
p80
F0.9
sS'gamma'
p81
F6.0
s(dp82
S'successful_storage'
p83
g21
(g25
S'\x00\x00\x00\x00\x00\x00\x00\x00'
p84
tp85
Rp86
sS'avg_dist'
p87
g21
(g25
S'\x13\xab\xfaU\xf89\xda?'
p88
tp89
Rp90
sS'err'
p91
g21
(g25
S'\x00\x00\x00\x00\x00\x00\x00\x00'
p92
tp93
Rp94
stp95
a(I1491009453
(dp96
g65
F0.01
sg66
F0.5
sg67
I00
sg68
F0.5
sg69
I1
sg70
F0.01
sg71
F0.7
sg72
I1001
sg73
I5
sg74
I1
sg75
F350.0
sg76
I100
sg77
I1
sg78
I50
sg79
I30
sg80
F0.9
sg81
F6.0
s(dp97
g83
g21
(g25
S'\x9a\x99\x99\x99\x99\x99\xc9?'
p98
tp99
Rp100
sg87
g21
(g25
S'\xd6\x12\x8b%*\xe8\xd9?'
p101
tp102
Rp103
sg91
g21
(g25
S'\x98\x99\x99\x99\x99\x99\xc9?'
p104
tp105
Rp106
stp107
a(I1491009470
(dp108
g65
F0.01
sg66
F0.5
sg67
I00
sg68
F0.5
sg69
I1
sg70
F0.01
sg71
F1.2
sg72
I1001
sg73
I5
sg74
I1
sg75
F350.0
sg76
I100
sg77
I1
sg78
I50
sg79
I30
sg80
F0.9
sg81
F6.0
s(dp109
g83
g21
(g25
S'\x9a\x99\x99\x99\x99\x99\xc9?'
p110
tp111
Rp112
sg87
g21
(g25
S'\xd6\x12\x8b%*\xe8\xd9?'
p113
tp114
Rp115
sg91
g21
(g25
S'\x98\x99\x99\x99\x99\x99\xc9?'
p116
tp117
Rp118
stp119
a(I1491009512
(dp120
S'learn_rate'
p121
F0.01
sS'b'
p122
F0.5
sS'shuffle'
p123
I00
sS'f'
p124
F0.5
sS'nbr_patterns'
p125
I5
sS'reapeat_sequence'
p126
I1
sS'ham_dist_threshold'
p127
F0.01
sS'eps'
p128
F0.9
sS'N'
p129
I1001
sS'initial_mean'
p130
I1
sS'initial_variance'
p131
I1
sS'test_length'
p132
I100
sS'theta'
p133
F350.0
sS'nb_iter'
p134
I50
sS'test_nb_iter'
p135
I30
sS'successful_storage_rate'
p136
F0.9
sS'gamma'
p137
F6.0
s(dp138
S'successful_storage'
p139
g21
(g25
S'\x9a\x99\x99\x99\x99\x99\xc9?'
p140
tp141
Rp142
sS'avg_dist'
p143
g21
(g25
S'>Dr\xde\xcf\xa0\xd8?'
p144
tp145
Rp146
sS'err'
p147
g21
(g25
S'\x98\x99\x99\x99\x99\x99\xc9?'
p148
tp149
Rp150
stp151
a(I1491009530
(dp152
g121
F0.01
sg122
F0.5
sg123
I00
sg124
F0.5
sg125
I5
sg126
I1
sg127
F0.01
sg128
F0.5
sg129
I1001
sg130
I1
sg131
I1
sg132
I100
sg133
F350.0
sg134
I50
sg135
I30
sg136
F0.9
sg137
F6.0
s(dp153
g139
g21
(g25
S'\x9a\x99\x99\x99\x99\x99\xc9?'
p154
tp155
Rp156
sg143
g21
(g25
S'\xc1\xc3\xb5\x8bZ\xa0\xd8?'
p157
tp158
Rp159
sg147
g21
(g25
S'\x98\x99\x99\x99\x99\x99\xc9?'
p160
tp161
Rp162
stp163
a(I1491009550
(dp164
g121
F0.01
sg122
F0.5
sg123
I00
sg124
F0.5
sg125
I5
sg126
I1
sg127
F0.01
sg128
F1.0
sg129
I1001
sg130
I1
sg131
I1
sg132
I100
sg133
F350.0
sg134
I50
sg135
I30
sg136
F0.9
sg137
F6.0
s(dp165
g139
g21
(g25
S'\x9a\x99\x99\x99\x99\x99\xc9?'
p166
tp167
Rp168
sg143
g21
(g25
S'>Dr\xde\xcf\xa0\xd8?'
p169
tp170
Rp171
sg147
g21
(g25
S'\x98\x99\x99\x99\x99\x99\xc9?'
p172
tp173
Rp174
stp175
a(I1491009628
(dp176
S'learn_rate'
p177
F0.01
sS'b'
p178
F0.5
sS'shuffle'
p179
I00
sS'f'
p180
F0.5
sS'reapeat_sequence'
p181
I1
sS'ham_dist_threshold'
p182
F0.01
sS'eps'
p183
I0
sS'N'
p184
I1001
sS'initial_mean'
p185
I1
sS'initial_variance'
p186
I1
sS'theta'
p187
F350.0
sS'test_length'
p188
I100
sS'nbr_patterns'
p189
I5
sS'nb_iter'
p190
I50
sS'test_nb_iter'
p191
I30
sS'successful_storage_rate'
p192
F0.9
sS'gamma'
p193
F6.0
s(dp194
S'successful_storage'
p195
g21
(g25
S'\x00\x00\x00\x00\x00\x00\x00\x00'
p196
tp197
Rp198
sS'avg_dist'
p199
g21
(g25
S'\xe2R\xcd\xcc\xbfv\xdb?'
p200
tp201
Rp202
sS'err'
p203
g21
(g25
S'\x00\x00\x00\x00\x00\x00\x00\x00'
p204
tp205
Rp206
stp207
a(I1491009646
(dp208
g177
F0.01
sg178
F0.5
sg179
I00
sg180
F0.5
sg181
I1
sg182
F0.01
sg183
F0.01
sg184
I1001
sg185
I1
sg186
I1
sg187
F350.0
sg188
I100
sg189
I5
sg190
I50
sg191
I30
sg192
F0.9
sg193
F6.0
s(dp209
g195
g21
(g25
S'\x00\x00\x00\x00\x00\x00\x00\x00'
p210
tp211
Rp212
sg199
g21
(g25
S'\x83\x066\x12\xff\r\xdb?'
p213
tp214
Rp215
sg203
g21
(g25
S'\x00\x00\x00\x00\x00\x00\x00\x00'
p216
tp217
Rp218
stp219
a(I1491009664
(dp220
g177
F0.01
sg178
F0.5
sg179
I00
sg180
F0.5
sg181
I1
sg182
F0.01
sg183
F0.02
sg184
I1001
sg185
I1
sg186
I1
sg187
F350.0
sg188
I100
sg189
I5
sg190
I50
sg191
I30
sg192
F0.9
sg193
F6.0
s(dp221
g195
g21
(g25
S'\x00\x00\x00\x00\x00\x00\x00\x00'
p222
tp223
Rp224
sg199
g21
(g25
S'x\xc1\x13\xa8E\x1a\xdb?'
p225
tp226
Rp227
sg203
g21
(g25
S'\x00\x00\x00\x00\x00\x00\x00\x00'
p228
tp229
Rp230
stp231
a(I1491009684
(dp232
g177
F0.01
sg178
F0.5
sg179
I00
sg180
F0.5
sg181
I1
sg182
F0.01
sg183
F0.05
sg184
I1001
sg185
I1
sg186
I1
sg187
F350.0
sg188
I100
sg189
I5
sg190
I50
sg191
I30
sg192
F0.9
sg193
F6.0
s(dp233
g195
g21
(g25
S'\x00\x00\x00\x00\x00\x00\x00\x00'
p234
tp235
Rp236
sg199
g21
(g25
S'\xe6\xb3\x02\xeb\xf6j\xdb?'
p237
tp238
Rp239
sg203
g21
(g25
S'\x00\x00\x00\x00\x00\x00\x00\x00'
p240
tp241
Rp242
stp243
a(I1491009704
(dp244
g177
F0.01
sg178
F0.5
sg179
I00
sg180
F0.5
sg181
I1
sg182
F0.01
sg183
F0.1
sg184
I1001
sg185
I1
sg186
I1
sg187
F350.0
sg188
I100
sg189
I5
sg190
I50
sg191
I30
sg192
F0.9
sg193
F6.0
s(dp245
g195
g21
(g25
S'\x00\x00\x00\x00\x00\x00\x00\x00'
p246
tp247
Rp248
sg199
g21
(g25
S'\xbe\x0c\xe3\x8dR\xfa\xda?'
p249
tp250
Rp251
sg203
g21
(g25
S'\x00\x00\x00\x00\x00\x00\x00\x00'
p252
tp253
Rp254
stp255
a(I1491009724
(dp256
g177
F0.01
sg178
F0.5
sg179
I00
sg180
F0.5
sg181
I1
sg182
F0.01
sg183
F0.2
sg184
I1001
sg185
I1
sg186
I1
sg187
F350.0
sg188
I100
sg189
I5
sg190
I50
sg191
I30
sg192
F0.9
sg193
F6.0
s(dp257
g195
g21
(g25
S'\x00\x00\x00\x00\x00\x00\x00\x00'
p258
tp259
Rp260
sg199
g21
(g25
S'\x80\xc2{>$i\xda?'
p261
tp262
Rp263
sg203
g21
(g25
S'\x00\x00\x00\x00\x00\x00\x00\x00'
p264
tp265
Rp266
stp267
a(I1491009741
(dp268
g177
F0.01
sg178
F0.5
sg179
I00
sg180
F0.5
sg181
I1
sg182
F0.01
sg183
F0.5
sg184
I1001
sg185
I1
sg186
I1
sg187
F350.0
sg188
I100
sg189
I5
sg190
I50
sg191
I30
sg192
F0.9
sg193
F6.0
s(dp269
g195
g21
(g25
S'\x9a\x99\x99\x99\x99\x99\xc9?'
p270
tp271
Rp272
sg199
g21
(g25
S'&\xf8"\x0c\xc4\n\xda?'
p273
tp274
Rp275
sg203
g21
(g25
S'\x98\x99\x99\x99\x99\x99\xc9?'
p276
tp277
Rp278
stp279
a(I1491009763
(dp280
g177
F0.01
sg178
F0.5
sg179
I00
sg180
F0.5
sg181
I1
sg182
F0.01
sg183
F1.0
sg184
I1001
sg185
I1
sg186
I1
sg187
F350.0
sg188
I100
sg189
I5
sg190
I50
sg191
I30
sg192
F0.9
sg193
F6.0
s(dp281
g195
g21
(g25
S'\x9a\x99\x99\x99\x99\x99\xc9?'
p282
tp283
Rp284
sg199
g21
(g25
S'{\xcf\x83kr\x0f\xda?'
p285
tp286
Rp287
sg203
g21
(g25
S'\x98\x99\x99\x99\x99\x99\xc9?'
p288
tp289
Rp290
stp291
a(I1491009782
(dp292
g177
F0.01
sg178
F0.5
sg179
I00
sg180
F0.5
sg181
I1
sg182
F0.01
sg183
F2.0
sg184
I1001
sg185
I1
sg186
I1
sg187
F350.0
sg188
I100
sg189
I5
sg190
I50
sg191
I30
sg192
F0.9
sg193
F6.0
s(dp293
g195
g21
(g25
S'\x9a\x99\x99\x99\x99\x99\xc9?'
p294
tp295
Rp296
sg199
g21
(g25
S'{\xcf\x83kr\x0f\xda?'
p297
tp298
Rp299
sg203
g21
(g25
S'\x98\x99\x99\x99\x99\x99\xc9?'
p300
tp301
Rp302
stp303
a(I1491009809
(dp304
g177
F0.01
sg178
F0.5
sg179
I00
sg180
F0.5
sg181
I1
sg182
F0.01
sg183
F5.0
sg184
I1001
sg185
I1
sg186
I1
sg187
F350.0
sg188
I100
sg189
I5
sg190
I50
sg191
I30
sg192
F0.9
sg193
F6.0
s(dp305
g195
g21
(g25
S'\x00\x00\x00\x00\x00\x00\x00\x00'
p306
tp307
Rp308
sg199
g21
(g25
S'0\xfa\xb9\xfc?\xd1\xd9?'
p309
tp310
Rp311
sg203
g21
(g25
S'\x00\x00\x00\x00\x00\x00\x00\x00'
p312
tp313
Rp314
stp315
a(I1491009833
(dp316
g177
F0.01
sg178
F0.5
sg179
I00
sg180
F0.5
sg181
I1
sg182
F0.01
sg183
F10.0
sg184
I1001
sg185
I1
sg186
I1
sg187
F350.0
sg188
I100
sg189
I5
sg190
I50
sg191
I30
sg192
F0.9
sg193
F6.0
s(dp317
g195
g21
(g25
S'\x9a\x99\x99\x99\x99\x99\xc9?'
p318
tp319
Rp320
sg199
g21
(g25
S'\x86FQ\xb7\x00:\xda?'
p321
tp322
Rp323
sg203
g21
(g25
S'\x98\x99\x99\x99\x99\x99\xc9?'
p324
tp325
Rp326
stp327
a(I1491009966
(dp328
S'learn_rate'
p329
F0.01
sS'b'
p330
F0.5
sS'shuffle'
p331
I00
sS'f'
p332
F0.5
sS'reapeat_sequence'
p333
I1
sS'ham_dist_threshold'
p334
F0.01
sS'eps'
p335
I0
sS'N'
p336
I1001
sS'initial_mean'
p337
I1
sS'nbr_patterns'
p338
I5
sS'initial_variance'
p339
I1
sS'test_length'
p340
I100
sS'theta'
p341
F350.0
sS'nb_iter'
p342
I50
sS'test_nb_iter'
p343
I30
sS'successful_storage_rate'
p344
F0.9
sS'gamma'
p345
F12.0
s(dp346
S'successful_storage'
p347
g21
(g25
S'\x00\x00\x00\x00\x00\x00\x00\x00'
p348
tp349
Rp350
sS'avg_dist'
p351
g21
(g25
S'\x83\\\xfa\xf3c"\xdb?'
p352
tp353
Rp354
sS'err'
p355
g21
(g25
S'\x00\x00\x00\x00\x00\x00\x00\x00'
p356
tp357
Rp358
stp359
a(I1491009989
(dp360
g329
F0.01
sg330
F0.5
sg331
I00
sg332
F0.5
sg333
I1
sg334
F0.01
sg335
F0.01
sg336
I1001
sg337
I1
sg338
I5
sg339
I1
sg340
I100
sg341
F350.0
sg342
I50
sg343
I30
sg344
F0.9
sg345
F12.0
s(dp361
g347
g21
(g25
S'\x00\x00\x00\x00\x00\x00\x00\x00'
p362
tp363
Rp364
sg351
g21
(g25
S'@4&\xc3UZ\xdb?'
p365
tp366
Rp367
sg355
g21
(g25
S'\x00\x00\x00\x00\x00\x00\x00\x00'
p368
tp369
Rp370
stp371
a(I1491010014
(dp372
g329
F0.01
sg330
F0.5
sg331
I00
sg332
F0.5
sg333
I1
sg334
F0.01
sg335
F0.02
sg336
I1001
sg337
I1
sg338
I5
sg339
I1
sg340
I100
sg341
F350.0
sg342
I50
sg343
I30
sg344
F0.9
sg345
F12.0
s(dp373
g347
g21
(g25
S'\x00\x00\x00\x00\x00\x00\x00\x00'
p374
tp375
Rp376
sg351
g21
(g25
S'\x13\xb3l\x0bp\x04\xdb?'
p377
tp378
Rp379
sg355
g21
(g25
S'\x00\x00\x00\x00\x00\x00\x00\x00'
p380
tp381
Rp382
stp383
a(I1491010040
(dp384
g329
F0.01
sg330
F0.5
sg331
I00
sg332
F0.5
sg333
I1
sg334
F0.01
sg335
F0.05
sg336
I1001
sg337
I1
sg338
I5
sg339
I1
sg340
I100
sg341
F350.0
sg342
I50
sg343
I30
sg344
F0.9
sg345
F12.0
s(dp385
g347
g21
(g25
S'\x00\x00\x00\x00\x00\x00\x00\x00'
p386
tp387
Rp388
sg351
g21
(g25
S'\xea\xa7bT\x87\x13\xdb?'
p389
tp390
Rp391
sg355
g21
(g25
S'\x00\x00\x00\x00\x00\x00\x00\x00'
p392
tp393
Rp394
stp395
a(I1491010065
(dp396
g329
F0.01
sg330
F0.5
sg331
I00
sg332
F0.5
sg333
I1
sg334
F0.01
sg335
F0.1
sg336
I1001
sg337
I1
sg338
I5
sg339
I1
sg340
I100
sg341
F350.0
sg342
I50
sg343
I30
sg344
F0.9
sg345
F12.0
s(dp397
g347
g21
(g25
S'\x00\x00\x00\x00\x00\x00\x00\x00'
p398
tp399
Rp400
sg351
g21
(g25
S'8\xbf\xefgC\xf6\xda?'
p401
tp402
Rp403
sg355
g21
(g25
S'\x00\x00\x00\x00\x00\x00\x00\x00'
p404
tp405
Rp406
stp407
a(I1491010087
(dp408
g329
F0.01
sg330
F0.5
sg331
I00
sg332
F0.5
sg333
I1
sg334
F0.01
sg335
F0.2
sg336
I1001
sg337
I1
sg338
I5
sg339
I1
sg340
I100
sg341
F350.0
sg342
I50
sg343
I30
sg344
F0.9
sg345
F12.0
s(dp409
g347
g21
(g25
S'\x00\x00\x00\x00\x00\x00\x00\x00'
p410
tp411
Rp412
sg351
g21
(g25
S'\xee\xe4\xc8\xbd{\xb3\xda?'
p413
tp414
Rp415
sg355
g21
(g25
S'\x00\x00\x00\x00\x00\x00\x00\x00'
p416
tp417
Rp418
stp419
a(I1491010113
(dp420
g329
F0.01
sg330
F0.5
sg331
I00
sg332
F0.5
sg333
I1
sg334
F0.01
sg335
F0.5
sg336
I1001
sg337
I1
sg338
I5
sg339
I1
sg340
I100
sg341
F350.0
sg342
I50
sg343
I30
sg344
F0.9
sg345
F12.0
s(dp421
g347
g21
(g25
S'\x00\x00\x00\x00\x00\x00\x00\x00'
p422
tp423
Rp424
sg351
g21
(g25
S'\x06\x11\x8d\xaf\xc42\xda?'
p425
tp426
Rp427
sg355
g21
(g25
S'\x00\x00\x00\x00\x00\x00\x00\x00'
p428
tp429
Rp430
stp431
a(I1491010135
(dp432
g329
F0.01
sg330
F0.5
sg331
I00
sg332
F0.5
sg333
I1
sg334
F0.01
sg335
F1.0
sg336
I1001
sg337
I1
sg338
I5
sg339
I1
sg340
I100
sg341
F350.0
sg342
I50
sg343
I30
sg344
F0.9
sg345
F12.0
s(dp433
g347
g21
(g25
S'\x9a\x99\x99\x99\x99\x99\xc9?'
p434
tp435
Rp436
sg351
g21
(g25
S'~X\xb6\x1f\xe4\xe4\xd9?'
p437
tp438
Rp439
sg355
g21
(g25
S'\x98\x99\x99\x99\x99\x99\xc9?'
p440
tp441
Rp442
stp443
a(I1491010158
(dp444
g329
F0.01
sg330
F0.5
sg331
I00
sg332
F0.5
sg333
I1
sg334
F0.01
sg335
F2.0
sg336
I1001
sg337
I1
sg338
I5
sg339
I1
sg340
I100
sg341
F350.0
sg342
I50
sg343
I30
sg344
F0.9
sg345
F12.0
s(dp445
g347
g21
(g25
S'\x9a\x99\x99\x99\x99\x99\xc9?'
p446
tp447
Rp448
sg351
g21
(g25
S'~X\xb6\x1f\xe4\xe4\xd9?'
p449
tp450
Rp451
sg355
g21
(g25
S'\x98\x99\x99\x99\x99\x99\xc9?'
p452
tp453
Rp454
stp455
a(I1491010180
(dp456
g329
F0.01
sg330
F0.5
sg331
I00
sg332
F0.5
sg333
I1
sg334
F0.01
sg335
F5.0
sg336
I1001
sg337
I1
sg338
I5
sg339
I1
sg340
I100
sg341
F350.0
sg342
I50
sg343
I30
sg344
F0.9
sg345
F12.0
s(dp457
g347
g21
(g25
S'\x9a\x99\x99\x99\x99\x99\xc9?'
p458
tp459
Rp460
sg351
g21
(g25
S'~X\xb6\x1f\xe4\xe4\xd9?'
p461
tp462
Rp463
sg355
g21
(g25
S'\x98\x99\x99\x99\x99\x99\xc9?'
p464
tp465
Rp466
stp467
a(I1491010204
(dp468
g329
F0.01
sg330
F0.5
sg331
I00
sg332
F0.5
sg333
I1
sg334
F0.01
sg335
F10.0
sg336
I1001
sg337
I1
sg338
I5
sg339
I1
sg340
I100
sg341
F350.0
sg342
I50
sg343
I30
sg344
F0.9
sg345
F12.0
s(dp469
g347
g21
(g25
S'\x9a\x99\x99\x99\x99\x99\xc9?'
p470
tp471
Rp472
sg351
g21
(g25
S'~X\xb6\x1f\xe4\xe4\xd9?'
p473
tp474
Rp475
sg355
g21
(g25
S'\x98\x99\x99\x99\x99\x99\xc9?'
p476
tp477
Rp478
stp479
a(I1491010534
(dp480
S'learn_rate'
p481
F0.01
sS'b'
p482
F0.5
sS'shuffle'
p483
I00
sS'f'
p484
F0.5
sS'reapeat_sequence'
p485
I1
sS'ham_dist_threshold'
p486
F0.01
sS'eps'
p487
I0
sS'N'
p488
I1001
sS'nbr_patterns'
p489
I5
sS'initial_variance'
p490
I1
sS'theta'
p491
F350.0
sS'test_length'
p492
I100
sS'initial_mean'
p493
I1
sS'nb_iter'
p494
I50
sS'test_nb_iter'
p495
I30
sS'successful_storage_rate'
p496
F0.9
sS'gamma'
p497
F9.0
s(dp498
S'successful_storage'
p499
g21
(g25
S'\x00\x00\x00\x00\x00\x00\x00\x00'
p500
tp501
Rp502
sS'avg_dist'
p503
g21
(g25
S'\x90ZR\xf4\xdb\xa9\xda?'
p504
tp505
Rp506
sS'err'
p507
g21
(g25
S'\x00\x00\x00\x00\x00\x00\x00\x00'
p508
tp509
Rp510
stp511
a(I1491010564
(dp512
g481
F0.01
sg482
F0.5
sg483
I00
sg484
F0.5
sg485
I1
sg486
F0.01
sg487
F0.01
sg488
I1001
sg489
I5
sg490
I1
sg491
F350.0
sg492
I100
sg493
I1
sg494
I50
sg495
I30
sg496
F0.9
sg497
F9.0
s(dp513
g499
g21
(g25
S'\x00\x00\x00\x00\x00\x00\x00\x00'
p514
tp515
Rp516
sg503
g21
(g25
S'\x9d\x16\x9d\x04}\x03\xdb?'
p517
tp518
Rp519
sg507
g21
(g25
S'\x00\x00\x00\x00\x00\x00\x00\x00'
p520
tp521
Rp522
stp523
a(I1491010593
(dp524
g481
F0.01
sg482
F0.5
sg483
I00
sg484
F0.5
sg485
I1
sg486
F0.01
sg487
F0.02
sg488
I1001
sg489
I5
sg490
I1
sg491
F350.0
sg492
I100
sg493
I1
sg494
I50
sg495
I30
sg496
F0.9
sg497
F9.0
s(dp525
g499
g21
(g25
S'\x00\x00\x00\x00\x00\x00\x00\x00'
p526
tp527
Rp528
sg503
g21
(g25
S'~\xef\xda\xf3oM\xdb?'
p529
tp530
Rp531
sg507
g21
(g25
S'\x00\x00\x00\x00\x00\x00\x00\x00'
p532
tp533
Rp534
stp535
a(I1491010616
(dp536
g481
F0.01
sg482
F0.5
sg483
I00
sg484
F0.5
sg485
I1
sg486
F0.01
sg487
F0.05
sg488
I1001
sg489
I5
sg490
I1
sg491
F350.0
sg492
I100
sg493
I1
sg494
I50
sg495
I30
sg496
F0.9
sg497
F9.0
s(dp537
g499
g21
(g25
S'\x00\x00\x00\x00\x00\x00\x00\x00'
p538
tp539
Rp540
sg503
g21
(g25
S'\x15\xf1K\x1aO\xa5\xda?'
p541
tp542
Rp543
sg507
g21
(g25
S'\x00\x00\x00\x00\x00\x00\x00\x00'
p544
tp545
Rp546
stp547
a(I1491010642
(dp548
g481
F0.01
sg482
F0.5
sg483
I00
sg484
F0.5
sg485
I1
sg486
F0.01
sg487
F0.1
sg488
I1001
sg489
I5
sg490
I1
sg491
F350.0
sg492
I100
sg493
I1
sg494
I50
sg495
I30
sg496
F0.9
sg497
F9.0
s(dp549
g499
g21
(g25
S'\x00\x00\x00\x00\x00\x00\x00\x00'
p550
tp551
Rp552
sg503
g21
(g25
S'\xcd\xe5M\x8e\xf6g\xda?'
p553
tp554
Rp555
sg507
g21
(g25
S'\x00\x00\x00\x00\x00\x00\x00\x00'
p556
tp557
Rp558
stp559
a(I1491010666
(dp560
g481
F0.01
sg482
F0.5
sg483
I00
sg484
F0.5
sg485
I1
sg486
F0.01
sg487
F0.2
sg488
I1001
sg489
I5
sg490
I1
sg491
F350.0
sg492
I100
sg493
I1
sg494
I50
sg495
I30
sg496
F0.9
sg497
F9.0
s(dp561
g499
g21
(g25
S'\x00\x00\x00\x00\x00\x00\x00\x00'
p562
tp563
Rp564
sg503
g21
(g25
S'e\x15<\xb5\xb2i\xda?'
p565
tp566
Rp567
sg507
g21
(g25
S'\x00\x00\x00\x00\x00\x00\x00\x00'
p568
tp569
Rp570
stp571
a(I1491010690
(dp572
g481
F0.01
sg482
F0.5
sg483
I00
sg484
F0.5
sg485
I1
sg486
F0.01
sg487
F0.5
sg488
I1001
sg489
I5
sg490
I1
sg491
F350.0
sg492
I100
sg493
I1
sg494
I50
sg495
I30
sg496
F0.9
sg497
F9.0
s(dp573
g499
g21
(g25
S'\x9a\x99\x99\x99\x99\x99\xc9?'
p574
tp575
Rp576
sg503
g21
(g25
S'\x80\xa9x \r0\xda?'
p577
tp578
Rp579
sg507
g21
(g25
S'\x98\x99\x99\x99\x99\x99\xc9?'
p580
tp581
Rp582
stp583
a(I1491010715
(dp584
g481
F0.01
sg482
F0.5
sg483
I00
sg484
F0.5
sg485
I1
sg486
F0.01
sg487
F1.0
sg488
I1001
sg489
I5
sg490
I1
sg491
F350.0
sg492
I100
sg493
I1
sg494
I50
sg495
I30
sg496
F0.9
sg497
F9.0
s(dp585
g499
g21
(g25
S'\x9a\x99\x99\x99\x99\x99\xc9?'
p586
tp587
Rp588
sg503
g21
(g25
S'\x100\xa4\xce\x18G\xda?'
p589
tp590
Rp591
sg507
g21
(g25
S'\x98\x99\x99\x99\x99\x99\xc9?'
p592
tp593
Rp594
stp595
a(I1491010735
(dp596
g481
F0.01
sg482
F0.5
sg483
I00
sg484
F0.5
sg485
I1
sg486
F0.01
sg487
F2.0
sg488
I1001
sg489
I5
sg490
I1
sg491
F350.0
sg492
I100
sg493
I1
sg494
I50
sg495
I30
sg496
F0.9
sg497
F9.0
s(dp597
g499
g21
(g25
S'\x9a\x99\x99\x99\x99\x99\xc9?'
p598
tp599
Rp600
sg503
g21
(g25
S'\x100\xa4\xce\x18G\xda?'
p601
tp602
Rp603
sg507
g21
(g25
S'\x98\x99\x99\x99\x99\x99\xc9?'
p604
tp605
Rp606
stp607
a(I1491010756
(dp608
g481
F0.01
sg482
F0.5
sg483
I00
sg484
F0.5
sg485
I1
sg486
F0.01
sg487
F5.0
sg488
I1001
sg489
I5
sg490
I1
sg491
F350.0
sg492
I100
sg493
I1
sg494
I50
sg495
I30
sg496
F0.9
sg497
F9.0
s(dp609
g499
g21
(g25
S'\x9a\x99\x99\x99\x99\x99\xc9?'
p610
tp611
Rp612
sg503
g21
(g25
S'\x100\xa4\xce\x18G\xda?'
p613
tp614
Rp615
sg507
g21
(g25
S'\x98\x99\x99\x99\x99\x99\xc9?'
p616
tp617
Rp618
stp619
a(I1491010777
(dp620
g481
F0.01
sg482
F0.5
sg483
I00
sg484
F0.5
sg485
I1
sg486
F0.01
sg487
F10.0
sg488
I1001
sg489
I5
sg490
I1
sg491
F350.0
sg492
I100
sg493
I1
sg494
I50
sg495
I30
sg496
F0.9
sg497
F9.0
s(dp621
g499
g21
(g25
S'\x9a\x99\x99\x99\x99\x99\xc9?'
p622
tp623
Rp624
sg503
g21
(g25
S'\xdb\xb6\xb2B\x88\xf8\xd9?'
p625
tp626
Rp627
sg507
g21
(g25
S'\x98\x99\x99\x99\x99\x99\xc9?'
p628
tp629
Rp630
stp631
a(I1491011785
(dp632
S'learn_rate'
p633
F0.01
sS'b'
p634
F0.5
sS'shuffle'
p635
I00
sS'f'
p636
F0.5
sS'nbr_patterns'
p637
I5
sS'reapeat_sequence'
p638
I1
sS'ham_dist_threshold'
p639
F0.01
sS'eps'
p640
I0
sS'N'
p641
I1001
sS'initial_mean'
p642
I1
sS'initial_variance'
p643
I1
sS'test_length'
p644
I100
sS'theta'
p645
F350.0
sS'nb_iter'
p646
I50
sS'test_nb_iter'
p647
I30
sS'successful_storage_rate'
p648
F0.9
sS'gamma'
p649
F3.0
s(dp650
S'successful_storage'
p651
g21
(g25
S'\x00\x00\x00\x00\x00\x00\x00\x00'
p652
tp653
Rp654
sS'avg_dist'
p655
g21
(g25
S"\x9b.'}\xa9;\xdb?"
p656
tp657
Rp658
sS'err'
p659
g21
(g25
S'\x00\x00\x00\x00\x00\x00\x00\x00'
p660
tp661
Rp662
stp663
a(I1491011808
(dp664
g633
F0.01
sg634
F0.5
sg635
I00
sg636
F0.5
sg637
I5
sg638
I1
sg639
F0.01
sg640
F0.01
sg641
I1001
sg642
I1
sg643
I1
sg644
I100
sg645
F350.0
sg646
I50
sg647
I30
sg648
F0.9
sg649
F3.0
s(dp665
g651
g21
(g25
S'\x00\x00\x00\x00\x00\x00\x00\x00'
p666
tp667
Rp668
sg655
g21
(g25
S'\xf2\x05\x88\xdcW@\xdb?'
p669
tp670
Rp671
sg659
g21
(g25
S'\x00\x00\x00\x00\x00\x00\x00\x00'
p672
tp673
Rp674
stp675
a(I1491011836
(dp676
g633
F0.01
sg634
F0.5
sg635
I00
sg636
F0.5
sg637
I5
sg638
I1
sg639
F0.01
sg640
F0.02
sg641
I1001
sg642
I1
sg643
I1
sg644
I100
sg645
F350.0
sg646
I50
sg647
I30
sg648
F0.9
sg649
F3.0
s(dp677
g651
g21
(g25
S'\x00\x00\x00\x00\x00\x00\x00\x00'
p678
tp679
Rp680
sg655
g21
(g25
S'\xdd\xf4L\xea\x95\x0e\xdb?'
p681
tp682
Rp683
sg659
g21
(g25
S'\x00\x00\x00\x00\x00\x00\x00\x00'
p684
tp685
Rp686
stp687
a(I1491011865
(dp688
g633
F0.01
sg634
F0.5
sg635
I00
sg636
F0.5
sg637
I5
sg638
I1
sg639
F0.01
sg640
F0.05
sg641
I1001
sg642
I1
sg643
I1
sg644
I100
sg645
F350.0
sg646
I50
sg647
I30
sg648
F0.9
sg649
F3.0
s(dp689
g651
g21
(g25
S'\x00\x00\x00\x00\x00\x00\x00\x00'
p690
tp691
Rp692
sg655
g21
(g25
S'X\x9bo\xe2\xc9)\xdb?'
p693
tp694
Rp695
sg659
g21
(g25
S'\x00\x00\x00\x00\x00\x00\x00\x00'
p696
tp697
Rp698
stp699
a(I1491011897
(dp700
g633
F0.01
sg634
F0.5
sg635
I00
sg636
F0.5
sg637
I5
sg638
I1
sg639
F0.01
sg640
F0.1
sg641
I1001
sg642
I1
sg643
I1
sg644
I100
sg645
F350.0
sg646
I50
sg647
I30
sg648
F0.9
sg649
F3.0
s(dp701
g651
g21
(g25
S'\x00\x00\x00\x00\x00\x00\x00\x00'
p702
tp703
Rp704
sg655
g21
(g25
S':\n2\xfe\xc9x\xda?'
p705
tp706
Rp707
sg659
g21
(g25
S'\x00\x00\x00\x00\x00\x00\x00\x00'
p708
tp709
Rp710
stp711
a(I1491011920
(dp712
g633
F0.01
sg634
F0.5
sg635
I00
sg636
F0.5
sg637
I5
sg638
I1
sg639
F0.01
sg640
F0.2
sg641
I1001
sg642
I1
sg643
I1
sg644
I100
sg645
F350.0
sg646
I50
sg647
I30
sg648
F0.9
sg649
F3.0
s(dp713
g651
g21
(g25
S'\x00\x00\x00\x00\x00\x00\x00\x00'
p714
tp715
Rp716
sg655
g21
(g25
S'*\xf8}f\x1dF\xda?'
p717
tp718
Rp719
sg659
g21
(g25
S'\x00\x00\x00\x00\x00\x00\x00\x00'
p720
tp721
Rp722
stp723
a(I1491011947
(dp724
g633
F0.01
sg634
F0.5
sg635
I00
sg636
F0.5
sg637
I5
sg638
I1
sg639
F0.01
sg640
F0.5
sg641
I1001
sg642
I1
sg643
I1
sg644
I100
sg645
F350.0
sg646
I50
sg647
I30
sg648
F0.9
sg649
F3.0
s(dp725
g651
g21
(g25
S'\x9a\x99\x99\x99\x99\x99\xc9?'
p726
tp727
Rp728
sg655
g21
(g25
S'&=@\x92\x01\x00\xd9?'
p729
tp730
Rp731
sg659
g21
(g25
S'\x98\x99\x99\x99\x99\x99\xc9?'
p732
tp733
Rp734
stp735
a(I1491011975
(dp736
g633
F0.01
sg634
F0.5
sg635
I00
sg636
F0.5
sg637
I5
sg638
I1
sg639
F0.01
sg640
F1.0
sg641
I1001
sg642
I1
sg643
I1
sg644
I100
sg645
F350.0
sg646
I50
sg647
I30
sg648
F0.9
sg649
F3.0
s(dp737
g651
g21
(g25
S'\x9a\x99\x99\x99\x99\x99\xc9?'
p738
tp739
Rp740
sg655
g21
(g25
S'\xfe\xc1\xab\xead7\xd9?'
p741
tp742
Rp743
sg659
g21
(g25
S'\x98\x99\x99\x99\x99\x99\xc9?'
p744
tp745
Rp746
stp747
a(I1491012002
(dp748
g633
F0.01
sg634
F0.5
sg635
I00
sg636
F0.5
sg637
I5
sg638
I1
sg639
F0.01
sg640
F2.0
sg641
I1001
sg642
I1
sg643
I1
sg644
I100
sg645
F350.0
sg646
I50
sg647
I30
sg648
F0.9
sg649
F3.0
s(dp749
g651
g21
(g25
S'\x00\x00\x00\x00\x00\x00\x00\x00'
p750
tp751
Rp752
sg655
g21
(g25
S'/\xe8\x99\xfb-\xb1\xd8?'
p753
tp754
Rp755
sg659
g21
(g25
S'\x00\x00\x00\x00\x00\x00\x00\x00'
p756
tp757
Rp758
stp759
a(I1491012029
(dp760
g633
F0.01
sg634
F0.5
sg635
I00
sg636
F0.5
sg637
I5
sg638
I1
sg639
F0.01
sg640
F5.0
sg641
I1001
sg642
I1
sg643
I1
sg644
I100
sg645
F350.0
sg646
I50
sg647
I30
sg648
F0.9
sg649
F3.0
s(dp761
g651
g21
(g25
S'\x9a\x99\x99\x99\x99\x99\xc9?'
p762
tp763
Rp764
sg655
g21
(g25
S'\xdb\x92-\xd9\x92-\xd9?'
p765
tp766
Rp767
sg659
g21
(g25
S'\x98\x99\x99\x99\x99\x99\xc9?'
p768
tp769
Rp770
stp771
a(I1491012058
(dp772
g633
F0.01
sg634
F0.5
sg635
I00
sg636
F0.5
sg637
I5
sg638
I1
sg639
F0.01
sg640
F10.0
sg641
I1001
sg642
I1
sg643
I1
sg644
I100
sg645
F350.0
sg646
I50
sg647
I30
sg648
F0.9
sg649
F3.0
s(dp773
g651
g21
(g25
S'\x9a\x99\x99\x99\x99\x99\xc9?'
p774
tp775
Rp776
sg655
g21
(g25
S'\xd8\x1b`\x8d\x04\x03\xd9?'
p777
tp778
Rp779
sg659
g21
(g25
S'\x98\x99\x99\x99\x99\x99\xc9?'
p780
tp781
Rp782
stp783
a(I1491012119
(dp784
S'learn_rate'
p785
F0.01
sS'b'
p786
F0.5
sS'shuffle'
p787
I00
sS'f'
p788
F0.5
sS'reapeat_sequence'
p789
I1
sS'ham_dist_threshold'
p790
F0.01
sS'eps'
p791
I0
sS'N'
p792
I1001
sS'initial_mean'
p793
I1
sS'initial_variance'
p794
I1
sS'theta'
p795
F350.0
sS'test_length'
p796
I100
sS'nbr_patterns'
p797
I5
sS'nb_iter'
p798
I50
sS'test_nb_iter'
p799
I30
sS'successful_storage_rate'
p800
F0.9
sS'gamma'
p801
F4.0
s(dp802
S'successful_storage'
p803
g21
(g25
S'\x00\x00\x00\x00\x00\x00\x00\x00'
p804
tp805
Rp806
sS'avg_dist'
p807
g21
(g25
S'\x05b`\xbf\xf9/\xdb?'
p808
tp809
Rp810
sS'err'
p811
g21
(g25
S'\x00\x00\x00\x00\x00\x00\x00\x00'
p812
tp813
Rp814
stp815
a(I1491012142
(dp816
g785
F0.01
sg786
F0.5
sg787
I00
sg788
F0.5
sg789
I1
sg790
F0.01
sg791
F0.01
sg792
I1001
sg793
I1
sg794
I1
sg795
F350.0
sg796
I100
sg797
I5
sg798
I50
sg799
I30
sg800
F0.9
sg801
F4.0
s(dp817
g803
g21
(g25
S'\x00\x00\x00\x00\x00\x00\x00\x00'
p818
tp819
Rp820
sg807
g21
(g25
S'\x0e\x9c\xb6\x92\x87\x08\xdb?'
p821
tp822
Rp823
sg811
g21
(g25
S'\x00\x00\x00\x00\x00\x00\x00\x00'
p824
tp825
Rp826
stp827
a(I1491012168
(dp828
g785
F0.01
sg786
F0.5
sg787
I00
sg788
F0.5
sg789
I1
sg790
F0.01
sg791
F0.02
sg792
I1001
sg793
I1
sg794
I1
sg795
F350.0
sg796
I100
sg797
I5
sg798
I50
sg799
I30
sg800
F0.9
sg801
F4.0
s(dp829
g803
g21
(g25
S'\x00\x00\x00\x00\x00\x00\x00\x00'
p830
tp831
Rp832
sg807
g21
(g25
S'\xe5k\xbf\xdb\xca\xfd\xda?'
p833
tp834
Rp835
sg811
g21
(g25
S'\x00\x00\x00\x00\x00\x00\x00\x00'
p836
tp837
Rp838
stp839
a(I1491012197
(dp840
g785
F0.01
sg786
F0.5
sg787
I00
sg788
F0.5
sg789
I1
sg790
F0.01
sg791
F0.05
sg792
I1001
sg793
I1
sg794
I1
sg795
F350.0
sg796
I100
sg797
I5
sg798
I50
sg799
I30
sg800
F0.9
sg801
F4.0
s(dp841
g803
g21
(g25
S'\x00\x00\x00\x00\x00\x00\x00\x00'
p842
tp843
Rp844
sg807
g21
(g25
S'],\x03=\xa7\x17\xdb?'
p845
tp846
Rp847
sg811
g21
(g25
S'\x00\x00\x00\x00\x00\x00\x00\x00'
p848
tp849
Rp850
stp851
a(I1491012225
(dp852
g785
F0.01
sg786
F0.5
sg787
I00
sg788
F0.5
sg789
I1
sg790
F0.01
sg791
F0.1
sg792
I1001
sg793
I1
sg794
I1
sg795
F350.0
sg796
I100
sg797
I5
sg798
I50
sg799
I30
sg800
F0.9
sg801
F4.0
s(dp853
g803
g21
(g25
S'\x00\x00\x00\x00\x00\x00\x00\x00'
p854
tp855
Rp856
sg807
g21
(g25
S'\x16u\xd7G\xde\xec\xda?'
p857
tp858
Rp859
sg811
g21
(g25
S'\x00\x00\x00\x00\x00\x00\x00\x00'
p860
tp861
Rp862
stp863
a(I1491012253
(dp864
g785
F0.01
sg786
F0.5
sg787
I00
sg788
F0.5
sg789
I1
sg790
F0.01
sg791
F0.2
sg792
I1001
sg793
I1
sg794
I1
sg795
F350.0
sg796
I100
sg797
I5
sg798
I50
sg799
I30
sg800
F0.9
sg801
F4.0
s(dp865
g803
g21
(g25
S'\x00\x00\x00\x00\x00\x00\x00\x00'
p866
tp867
Rp868
sg807
g21
(g25
S"\xfaN\xd8'\t\xc1\xda?"
p869
tp870
Rp871
sg811
g21
(g25
S'\x00\x00\x00\x00\x00\x00\x00\x00'
p872
tp873
Rp874
stp875
a(I1491012280
(dp876
g785
F0.01
sg786
F0.5
sg787
I00
sg788
F0.5
sg789
I1
sg790
F0.01
sg791
F0.5
sg792
I1001
sg793
I1
sg794
I1
sg795
F350.0
sg796
I100
sg797
I5
sg798
I50
sg799
I30
sg800
F0.9
sg801
F4.0
s(dp877
g803
g21
(g25
S'\x9a\x99\x99\x99\x99\x99\xc9?'
p878
tp879
Rp880
sg807
g21
(g25
S'8\xaf\xb0\xa2\xfa%\xd9?'
p881
tp882
Rp883
sg811
g21
(g25
S'\x98\x99\x99\x99\x99\x99\xc9?'
p884
tp885
Rp886
stp887
a(I1491012309
(dp888
g785
F0.01
sg786
F0.5
sg787
I00
sg788
F0.5
sg789
I1
sg790
F0.01
sg791
F1.0
sg792
I1001
sg793
I1
sg794
I1
sg795
F350.0
sg796
I100
sg797
I5
sg798
I50
sg799
I30
sg800
F0.9
sg801
F4.0
s(dp889
g803
g21
(g25
S'\x9a\x99\x99\x99\x99\x99\xc9?'
p890
tp891
Rp892
sg807
g21
(g25
S'1h\xf7G\xc5k\xd9?'
p893
tp894
Rp895
sg811
g21
(g25
S'\x98\x99\x99\x99\x99\x99\xc9?'
p896
tp897
Rp898
stp899
a(I1491012338
(dp900
g785
F0.01
sg786
F0.5
sg787
I00
sg788
F0.5
sg789
I1
sg790
F0.01
sg791
F2.0
sg792
I1001
sg793
I1
sg794
I1
sg795
F350.0
sg796
I100
sg797
I5
sg798
I50
sg799
I30
sg800
F0.9
sg801
F4.0
s(dp901
g803
g21
(g25
S'\x9a\x99\x99\x99\x99\x99\xc9?'
p902
tp903
Rp904
sg807
g21
(g25
S'\xae~\xa40\xad^\xd9?'
p905
tp906
Rp907
sg811
g21
(g25
S'\x98\x99\x99\x99\x99\x99\xc9?'
p908
tp909
Rp910
stp911
a(I1491012364
(dp912
g785
F0.01
sg786
F0.5
sg787
I00
sg788
F0.5
sg789
I1
sg790
F0.01
sg791
F5.0
sg792
I1001
sg793
I1
sg794
I1
sg795
F350.0
sg796
I100
sg797
I5
sg798
I50
sg799
I30
sg800
F0.9
sg801
F4.0
s(dp913
g803
g21
(g25
S'\x9a\x99\x99\x99\x99\x99\xc9?'
p914
tp915
Rp916
sg807
g21
(g25
S'\xeb\xf7\x95\xbc=\xad\xd9?'
p917
tp918
Rp919
sg811
g21
(g25
S'\x98\x99\x99\x99\x99\x99\xc9?'
p920
tp921
Rp922
stp923
a(I1491012391
(dp924
g785
F0.01
sg786
F0.5
sg787
I00
sg788
F0.5
sg789
I1
sg790
F0.01
sg791
F1.0
sg792
I1001
sg793
I1
sg794
I1
sg795
F350.0
sg796
I100
sg797
I5
sg798
I50
sg799
I30
sg800
F0.9
sg801
F4.0
s(dp925
g803
g21
(g25
S'\x9a\x99\x99\x99\x99\x99\xc9?'
p926
tp927
Rp928
sg807
g21
(g25
S'\xeb\xf7\x95\xbc=\xad\xd9?'
p929
tp930
Rp931
sg811
g21
(g25
S'\x98\x99\x99\x99\x99\x99\xc9?'
p932
tp933
Rp934
stp935
a(I1491097057
(dp936
S'learn_rate'
p937
F0.01
sS'b'
p938
F0.5
sS'shuffle'
p939
I00
sS'f'
p940
F0.5
sS'reapeat_sequence'
p941
I1
sS'ham_dist_threshold'
p942
F0.01
sS'eps'
p943
I0
sS'N'
p944
I1001
sS'nbr_patterns'
p945
I5
sS'initial_variance'
p946
I1
sS'theta'
p947
F350.0
sS'test_length'
p948
I100
sS'initial_mean'
p949
I1
sS'nb_iter'
p950
I50
sS'test_nb_iter'
p951
I30
sS'successful_storage_rate'
p952
F0.9
sS'gamma'
p953
F6.0
s(dp954
S'successful_storage'
p955
g21
(g25
S'\x00\x00\x00\x00\x00\x00\x00\x00'
p956
tp957
Rp958
sS'avg_dist'
p959
g21
(g25
S'z\x16\x04\x8af\xf2\xda?'
p960
tp961
Rp962
sS'err'
p963
g21
(g25
S'\x00\x00\x00\x00\x00\x00\x00\x00'
p964
tp965
Rp966
stp967
a(I1491097078
(dp968
g937
F0.01
sg938
F0.5
sg939
I00
sg940
F0.5
sg941
I1
sg942
F0.01
sg943
F0.01
sg944
I1001
sg945
I5
sg946
I1
sg947
F350.0
sg948
I100
sg949
I1
sg950
I50
sg951
I30
sg952
F0.9
sg953
F6.0
s(dp969
g955
g21
(g25
S'\x00\x00\x00\x00\x00\x00\x00\x00'
p970
tp971
Rp972
sg959
g21
(g25
S'\xf66\x04d\x8f\xff\xda?'
p973
tp974
Rp975
sg963
g21
(g25
S'\x00\x00\x00\x00\x00\x00\x00\x00'
p976
tp977
Rp978
stp979
a(I1491097095
(dp980
g937
F0.01
sg938
F0.5
sg939
I00
sg940
F0.5
sg941
I1
sg942
F0.01
sg943
F0.02
sg944
I1001
sg945
I5
sg946
I1
sg947
F350.0
sg948
I100
sg949
I1
sg950
I50
sg951
I30
sg952
F0.9
sg953
F6.0
s(dp981
g955
g21
(g25
S'\x00\x00\x00\x00\x00\x00\x00\x00'
p982
tp983
Rp984
sg959
g21
(g25
S'\x03m,V%K\xdb?'
p985
tp986
Rp987
sg963
g21
(g25
S'\x00\x00\x00\x00\x00\x00\x00\x00'
p988
tp989
Rp990
stp991
a(I1491097111
(dp992
g937
F0.01
sg938
F0.5
sg939
I00
sg940
F0.5
sg941
I1
sg942
F0.01
sg943
F0.05
sg944
I1001
sg945
I5
sg946
I1
sg947
F350.0
sg948
I100
sg949
I1
sg950
I50
sg951
I30
sg952
F0.9
sg953
F6.0
s(dp993
g955
g21
(g25
S'\x00\x00\x00\x00\x00\x00\x00\x00'
p994
tp995
Rp996
sg959
g21
(g25
S'\x1e\xc7\xb7\x93\x98\xfd\xda?'
p997
tp998
Rp999
sg963
g21
(g25
S'\x00\x00\x00\x00\x00\x00\x00\x00'
p1000
tp1001
Rp1002
stp1003
a(I1491097131
(dp1004
g937
F0.01
sg938
F0.5
sg939
I00
sg940
F0.5
sg941
I1
sg942
F0.01
sg943
F0.1
sg944
I1001
sg945
I5
sg946
I1
sg947
F350.0
sg948
I100
sg949
I1
sg950
I50
sg951
I30
sg952
F0.9
sg953
F6.0
s(dp1005
g955
g21
(g25
S'\x00\x00\x00\x00\x00\x00\x00\x00'
p1006
tp1007
Rp1008
sg959
g21
(g25
S'\xee\xf1+E#\x95\xda?'
p1009
tp1010
Rp1011
sg963
g21
(g25
S'\x00\x00\x00\x00\x00\x00\x00\x00'
p1012
tp1013
Rp1014
stp1015
a(I1491097149
(dp1016
g937
F0.01
sg938
F0.5
sg939
I00
sg940
F0.5
sg941
I1
sg942
F0.01
sg943
F0.2
sg944
I1001
sg945
I5
sg946
I1
sg947
F350.0
sg948
I100
sg949
I1
sg950
I50
sg951
I30
sg952
F0.9
sg953
F6.0
s(dp1017
g955
g21
(g25
S'\x00\x00\x00\x00\x00\x00\x00\x00'
p1018
tp1019
Rp1020
sg959
g21
(g25
S'\xc8\xffn\xf7\x9ef\xda?'
p1021
tp1022
Rp1023
sg963
g21
(g25
S'\x00\x00\x00\x00\x00\x00\x00\x00'
p1024
tp1025
Rp1026
stp1027
a(I1491097169
(dp1028
g937
F0.01
sg938
F0.5
sg939
I00
sg940
F0.5
sg941
I1
sg942
F0.01
sg943
F0.5
sg944
I1001
sg945
I5
sg946
I1
sg947
F350.0
sg948
I100
sg949
I1
sg950
I50
sg951
I30
sg952
F0.9
sg953
F6.0
s(dp1029
g955
g21
(g25
S'\x9a\x99\x99\x99\x99\x99\xc9?'
p1030
tp1031
Rp1032
sg959
g21
(g25
S'\xab&I^\xcc\x83\xd9?'
p1033
tp1034
Rp1035
sg963
g21
(g25
S'\x98\x99\x99\x99\x99\x99\xc9?'
p1036
tp1037
Rp1038
stp1039
a(I1491097189
(dp1040
g937
F0.01
sg938
F0.5
sg939
I00
sg940
F0.5
sg941
I1
sg942
F0.01
sg943
F1.0
sg944
I1001
sg945
I5
sg946
I1
sg947
F350.0
sg948
I100
sg949
I1
sg950
I50
sg951
I30
sg952
F0.9
sg953
F6.0
s(dp1041
g955
g21
(g25
S'\x9a\x99\x99\x99\x99\x99\xc9?'
p1042
tp1043
Rp1044
sg959
g21
(g25
S'\xd2$\xf0\x8d\r\x93\xd9?'
p1045
tp1046
Rp1047
sg963
g21
(g25
S'\x98\x99\x99\x99\x99\x99\xc9?'
p1048
tp1049
Rp1050
stp1051
a(I1491097209
(dp1052
g937
F0.01
sg938
F0.5
sg939
I00
sg940
F0.5
sg941
I1
sg942
F0.01
sg943
F2.0
sg944
I1001
sg945
I5
sg946
I1
sg947
F350.0
sg948
I100
sg949
I1
sg950
I50
sg951
I30
sg952
F0.9
sg953
F6.0
s(dp1053
g955
g21
(g25
S'\x9a\x99\x99\x99\x99\x99\xc9?'
p1054
tp1055
Rp1056
sg959
g21
(g25
S'\xd2$\xf0\x8d\r\x93\xd9?'
p1057
tp1058
Rp1059
sg963
g21
(g25
S'\x98\x99\x99\x99\x99\x99\xc9?'
p1060
tp1061
Rp1062
stp1063
a(I1491097232
(dp1064
g937
F0.01
sg938
F0.5
sg939
I00
sg940
F0.5
sg941
I1
sg942
F0.01
sg943
F5.0
sg944
I1001
sg945
I5
sg946
I1
sg947
F350.0
sg948
I100
sg949
I1
sg950
I50
sg951
I30
sg952
F0.9
sg953
F6.0
s(dp1065
g955
g21
(g25
S'\x00\x00\x00\x00\x00\x00\x00\x00'
p1066
tp1067
Rp1068
sg959
g21
(g25
S'va\x8b\x87\xbe\xff\xd8?'
p1069
tp1070
Rp1071
sg963
g21
(g25
S'\x00\x00\x00\x00\x00\x00\x00\x00'
p1072
tp1073
Rp1074
stp1075
a(I1491097252
(dp1076
g937
F0.01
sg938
F0.5
sg939
I00
sg940
F0.5
sg941
I1
sg942
F0.01
sg943
F10.0
sg944
I1001
sg945
I5
sg946
I1
sg947
F350.0
sg948
I100
sg949
I1
sg950
I50
sg951
I30
sg952
F0.9
sg953
F6.0
s(dp1077
g955
g21
(g25
S'\x9a\x99\x99\x99\x99\x99\xc9?'
p1078
tp1079
Rp1080
sg959
g21
(g25
S'(\xf1)\xfc6A\xd9?'
p1081
tp1082
Rp1083
sg963
g21
(g25
S'\x98\x99\x99\x99\x99\x99\xc9?'
p1084
tp1085
Rp1086
stp1087
a(I1491098036
(dp1088
S'learn_rate'
p1089
F0.01
sS'b'
p1090
F0.5
sS'shuffle'
p1091
I00
sS'f'
p1092
F0.5
sS'nbr_patterns'
p1093
I5
sS'reapeat_sequence'
p1094
I1
sS'ham_dist_threshold'
p1095
F0.01
sS'eps'
p1096
I0
sS'N'
p1097
I1001
sS'initial_mean'
p1098
I1
sS'initial_variance'
p1099
I1
sS'test_length'
p1100
I100
sS'theta'
p1101
F350.0
sS'nb_iter'
p1102
I50
sS'test_nb_iter'
p1103
I30
sS'successful_storage_rate'
p1104
F0.9
sS'gamma'
p1105
F6.0
s(dp1106
S'successful_storage'
p1107
g21
(g25
S'\x00\x00\x00\x00\x00\x00\x00\x00'
p1108
tp1109
Rp1110
sS'avg_dist'
p1111
g21
(g25
S'@\xae\x03\xa5JL\xdb?'
p1112
tp1113
Rp1114
sS'err'
p1115
g21
(g25
S'\x00\x00\x00\x00\x00\x00\x00\x00'
p1116
tp1117
Rp1118
stp1119
a(I1491098055
(dp1120
g1089
F0.01
sg1090
F0.5
sg1091
I00
sg1092
F0.5
sg1093
I5
sg1094
I1
sg1095
F0.01
sg1096
F0.01
sg1097
I1001
sg1098
I1
sg1099
I1
sg1100
I100
sg1101
F350.0
sg1102
I50
sg1103
I30
sg1104
F0.9
sg1105
F6.0
s(dp1121
g1107
g21
(g25
S'\x00\x00\x00\x00\x00\x00\x00\x00'
p1122
tp1123
Rp1124
sg1111
g21
(g25
S'#q\xf3\xb13\xe9\xda?'
p1125
tp1126
Rp1127
sg1115
g21
(g25
S'\x00\x00\x00\x00\x00\x00\x00\x00'
p1128
tp1129
Rp1130
stp1131
a(I1491098078
(dp1132
g1089
F0.01
sg1090
F0.5
sg1091
I00
sg1092
F0.5
sg1093
I5
sg1094
I1
sg1095
F0.01
sg1096
F0.02
sg1097
I1001
sg1098
I1
sg1099
I1
sg1100
I100
sg1101
F350.0
sg1102
I50
sg1103
I30
sg1104
F0.9
sg1105
F6.0
s(dp1133
g1107
g21
(g25
S'\x00\x00\x00\x00\x00\x00\x00\x00'
p1134
tp1135
Rp1136
sg1111
g21
(g25
S'\xdaL\xa8\xbcv\xe9\xda?'
p1137
tp1138
Rp1139
sg1115
g21
(g25
S'\x00\x00\x00\x00\x00\x00\x00\x00'
p1140
tp1141
Rp1142
stp1143
a(I1491098096
(dp1144
g1089
F0.01
sg1090
F0.5
sg1091
I00
sg1092
F0.5
sg1093
I5
sg1094
I1
sg1095
F0.01
sg1096
F0.05
sg1097
I1001
sg1098
I1
sg1099
I1
sg1100
I100
sg1101
F350.0
sg1102
I50
sg1103
I30
sg1104
F0.9
sg1105
F6.0
s(dp1145
g1107
g21
(g25
S'\x00\x00\x00\x00\x00\x00\x00\x00'
p1146
tp1147
Rp1148
sg1111
g21
(g25
S'"\x0e\'\xa3\x80.\xdb?'
p1149
tp1150
Rp1151
sg1115
g21
(g25
S'\x00\x00\x00\x00\x00\x00\x00\x00'
p1152
tp1153
Rp1154
stp1155
a(I1491098119
(dp1156
g1089
F0.01
sg1090
F0.5
sg1091
I00
sg1092
F0.5
sg1093
I5
sg1094
I1
sg1095
F0.01
sg1096
F0.1
sg1097
I1001
sg1098
I1
sg1099
I1
sg1100
I100
sg1101
F350.0
sg1102
I50
sg1103
I30
sg1104
F0.9
sg1105
F6.0
s(dp1157
g1107
g21
(g25
S'\x00\x00\x00\x00\x00\x00\x00\x00'
p1158
tp1159
Rp1160
sg1111
g21
(g25
S'\r\xa9\x19\x1a/\xea\xda?'
p1161
tp1162
Rp1163
sg1115
g21
(g25
S'\x00\x00\x00\x00\x00\x00\x00\x00'
p1164
tp1165
Rp1166
stp1167
a(I1491098143
(dp1168
g1089
F0.01
sg1090
F0.5
sg1091
I00
sg1092
F0.5
sg1093
I5
sg1094
I1
sg1095
F0.01
sg1096
F0.2
sg1097
I1001
sg1098
I1
sg1099
I1
sg1100
I100
sg1101
F350.0
sg1102
I50
sg1103
I30
sg1104
F0.9
sg1105
F6.0
s(dp1169
g1107
g21
(g25
S'\x00\x00\x00\x00\x00\x00\x00\x00'
p1170
tp1171
Rp1172
sg1111
g21
(g25
S'\xe0?\x8f\x80\x1c\x91\xda?'
p1173
tp1174
Rp1175
sg1115
g21
(g25
S'\x00\x00\x00\x00\x00\x00\x00\x00'
p1176
tp1177
Rp1178
stp1179
a(I1491098168
(dp1180
g1089
F0.01
sg1090
F0.5
sg1091
I00
sg1092
F0.5
sg1093
I5
sg1094
I1
sg1095
F0.01
sg1096
F0.5
sg1097
I1001
sg1098
I1
sg1099
I1
sg1100
I100
sg1101
F350.0
sg1102
I50
sg1103
I30
sg1104
F0.9
sg1105
F6.0
s(dp1181
g1107
g21
(g25
S'\x9a\x99\x99\x99\x99\x99\xc9?'
p1182
tp1183
Rp1184
sg1111
g21
(g25
S'\x18\x0f/\xfb\x89C\xd9?'
p1185
tp1186
Rp1187
sg1115
g21
(g25
S'\x98\x99\x99\x99\x99\x99\xc9?'
p1188
tp1189
Rp1190
stp1191
a(I1491098194
(dp1192
g1089
F0.01
sg1090
F0.5
sg1091
I00
sg1092
F0.5
sg1093
I5
sg1094
I1
sg1095
F0.01
sg1096
F1.0
sg1097
I1001
sg1098
I1
sg1099
I1
sg1100
I100
sg1101
F350.0
sg1102
I50
sg1103
I30
sg1104
F0.9
sg1105
F6.0
s(dp1193
g1107
g21
(g25
S'\x9a\x99\x99\x99\x99\x99\xc9?'
p1194
tp1195
Rp1196
sg1111
g21
(g25
S'[\x0eC\xa5%\xa0\xd9?'
p1197
tp1198
Rp1199
sg1115
g21
(g25
S'\x98\x99\x99\x99\x99\x99\xc9?'
p1200
tp1201
Rp1202
stp1203
a(I1491098218
(dp1204
g1089
F0.01
sg1090
F0.5
sg1091
I00
sg1092
F0.5
sg1093
I5
sg1094
I1
sg1095
F0.01
sg1096
F2.0
sg1097
I1001
sg1098
I1
sg1099
I1
sg1100
I100
sg1101
F350.0
sg1102
I50
sg1103
I30
sg1104
F0.9
sg1105
F6.0
s(dp1205
g1107
g21
(g25
S'\x9a\x99\x99\x99\x99\x99\xc9?'
p1206
tp1207
Rp1208
sg1111
g21
(g25
S'[\x0eC\xa5%\xa0\xd9?'
p1209
tp1210
Rp1211
sg1115
g21
(g25
S'\x98\x99\x99\x99\x99\x99\xc9?'
p1212
tp1213
Rp1214
stp1215
a(I1491098244
(dp1216
g1089
F0.01
sg1090
F0.5
sg1091
I00
sg1092
F0.5
sg1093
I5
sg1094
I1
sg1095
F0.01
sg1096
F5.0
sg1097
I1001
sg1098
I1
sg1099
I1
sg1100
I100
sg1101
F350.0
sg1102
I50
sg1103
I30
sg1104
F0.9
sg1105
F6.0
s(dp1217
g1107
g21
(g25
S'\x00\x00\x00\x00\x00\x00\x00\x00'
p1218
tp1219
Rp1220
sg1111
g21
(g25
S'a\x05\xb3\xa4\x1c\x10\xd9?'
p1221
tp1222
Rp1223
sg1115
g21
(g25
S'\x00\x00\x00\x00\x00\x00\x00\x00'
p1224
tp1225
Rp1226
stp1227
a(I1491098264
(dp1228
g1089
F0.01
sg1090
F0.5
sg1091
I00
sg1092
F0.5
sg1093
I5
sg1094
I1
sg1095
F0.01
sg1096
F10.0
sg1097
I1001
sg1098
I1
sg1099
I1
sg1100
I100
sg1101
F350.0
sg1102
I50
sg1103
I30
sg1104
F0.9
sg1105
F6.0
s(dp1229
g1107
g21
(g25
S'\x9a\x99\x99\x99\x99\x99\xc9?'
p1230
tp1231
Rp1232
sg1111
g21
(g25
S'\xf0w\xf3\x08\xd5g\xda?'
p1233
tp1234
Rp1235
sg1115
g21
(g25
S'\x98\x99\x99\x99\x99\x99\xc9?'
p1236
tp1237
Rp1238
stp1239
a.