(lp0
(I1491009344
(dp1
S'learn_rate'
p2
F0.01
sS'b'
p3
F0.5
sS'shuffle'
p4
I00
sS'f'
p5
F0.5
sS'reapeat_sequence'
p6
I1
sS'ham_dist_threshold'
p7
F0.01
sS'eps'
p8
I0
sS'N'
p9
I1001
sS'initial_mean'
p10
I1
sS'initial_variance'
p11
I1
sS'theta'
p12
F350.0
sS'test_length'
p13
I100
sS'nbr_patterns'
p14
I5
sS'nb_iter'
p15
I50
sS'test_nb_iter'
p16
I30
sS'successful_storage_rate'
p17
F0.9
sS'gamma'
p18
F6.0
s(dp19
S'successful_storage'
p20
cnumpy.core.multiarray
scalar
p21
(cnumpy
dtype
p22
(S'f8'
p23
I0
I1
tp24
Rp25
(I3
S'<'
p26
NNNI-1
I-1
I0
tp27
bS'\x00\x00\x00\x00\x00\x00\x00\x00'
p28
tp29
Rp30
sS'avg_dist'
p31
g21
(g25
S'\xbdk\xdc\x15gc\xdb?'
p32
tp33
Rp34
sS'err'
p35
g21
(g25
S'\x00\x00\x00\x00\x00\x00\x00\x00'
p36
tp37
Rp38
stp39
a(I1491009363
(dp40
g2
F0.01
sg3
F0.5
sg4
I00
sg5
F0.5
sg6
I1
sg7
F0.01
sg8
F0.2
sg9
I1001
sg10
I1
sg11
I1
sg12
F350.0
sg13
I100
sg14
I5
sg15
I50
sg16
I30
sg17
F0.9
sg18
F6.0
s(dp41
g20
g21
(g25
S'\x00\x00\x00\x00\x00\x00\x00\x00'
p42
tp43
Rp44
sg31
g21
(g25
S'\xae\x81\x14\x05\xe9_\xda?'
p45
tp46
Rp47
sg35
g21
(g25
S'\x00\x00\x00\x00\x00\x00\x00\x00'
p48
tp49
Rp50
stp51
a(I1491009383
(dp52
g2
F0.01
sg3
F0.5
sg4
I00
sg5
F0.5
sg6
I1
sg7
F0.01
sg8
F0.9
sg9
I1001
sg10
I1
sg11
I1
sg12
F350.0
sg13
I100
sg14
I5
sg15
I50
sg16
I30
sg17
F0.9
sg18
F6.0
s(dp53
g20
g21
(g25
S'\x9a\x99\x99\x99\x99\x99\xc9?'
p54
tp55
Rp56
sg31
g21
(g25
S'\xc86U\xf6\xf0=\xd9?'
p57
tp58
Rp59
sg35
g21
(g25
S'\x98\x99\x99\x99\x99\x99\xc9?'
p60
tp61
Rp62
stp63
a(I1491009435
(dp64
S'learn_rate'
p65
F0.01
sS'b'
p66
F0.5
sS'shuffle'
p67
I00
sS'f'
p68
F0.5
sS'reapeat_sequence'
p69
I1
sS'ham_dist_threshold'
p70
F0.01
sS'eps'
p71
F0.3
sS'N'
p72
I1001
sS'initial_mean'
p73
I1
sS'nbr_patterns'
p74
I5
sS'initial_variance'
p75
I1
sS'test_length'
p76
I100
sS'theta'
p77
F350.0
sS'nb_iter'
p78
I50
sS'test_nb_iter'
p79
I30
sS'successful_storage_rate'
p80
F0.9
sS'gamma'
p81
F6.0
s(dp82
S'successful_storage'
p83
g21
(g25
S'\x00\x00\x00\x00\x00\x00\x00\x00'
p84
tp85
Rp86
sS'avg_dist'
p87
g21
(g25
S'\x13\xab\xfaU\xf89\xda?'
p88
tp89
Rp90
sS'err'
p91
g21
(g25
S'\x00\x00\x00\x00\x00\x00\x00\x00'
p92
tp93
Rp94
stp95
a(I1491009453
(dp96
g65
F0.01
sg66
F0.5
sg67
I00
sg68
F0.5
sg69
I1
sg70
F0.01
sg71
F0.7
sg72
I1001
sg73
I1
sg74
I5
sg75
I1
sg76
I100
sg77
F350.0
sg78
I50
sg79
I30
sg80
F0.9
sg81
F6.0
s(dp97
g83
g21
(g25
S'\x9a\x99\x99\x99\x99\x99\xc9?'
p98
tp99
Rp100
sg87
g21
(g25
S'\xd6\x12\x8b%*\xe8\xd9?'
p101
tp102
Rp103
sg91
g21
(g25
S'\x98\x99\x99\x99\x99\x99\xc9?'
p104
tp105
Rp106
stp107
a(I1491009470
(dp108
g65
F0.01
sg66
F0.5
sg67
I00
sg68
F0.5
sg69
I1
sg70
F0.01
sg71
F1.2
sg72
I1001
sg73
I1
sg74
I5
sg75
I1
sg76
I100
sg77
F350.0
sg78
I50
sg79
I30
sg80
F0.9
sg81
F6.0
s(dp109
g83
g21
(g25
S'\x9a\x99\x99\x99\x99\x99\xc9?'
p110
tp111
Rp112
sg87
g21
(g25
S'\xd6\x12\x8b%*\xe8\xd9?'
p113
tp114
Rp115
sg91
g21
(g25
S'\x98\x99\x99\x99\x99\x99\xc9?'
p116
tp117
Rp118
stp119
a(I1491009512
(dp120
S'learn_rate'
p121
F0.01
sS'b'
p122
F0.5
sS'shuffle'
p123
I00
sS'f'
p124
F0.5
sS'reapeat_sequence'
p125
I1
sS'ham_dist_threshold'
p126
F0.01
sS'eps'
p127
F0.9
sS'N'
p128
I1001
sS'nbr_patterns'
p129
I5
sS'initial_variance'
p130
I1
sS'theta'
p131
F350.0
sS'test_length'
p132
I100
sS'initial_mean'
p133
I1
sS'nb_iter'
p134
I50
sS'test_nb_iter'
p135
I30
sS'successful_storage_rate'
p136
F0.9
sS'gamma'
p137
F6.0
s(dp138
S'successful_storage'
p139
g21
(g25
S'\x9a\x99\x99\x99\x99\x99\xc9?'
p140
tp141
Rp142
sS'avg_dist'
p143
g21
(g25
S'>Dr\xde\xcf\xa0\xd8?'
p144
tp145
Rp146
sS'err'
p147
g21
(g25
S'\x98\x99\x99\x99\x99\x99\xc9?'
p148
tp149
Rp150
stp151
a(I1491009530
(dp152
g121
F0.01
sg122
F0.5
sg123
I00
sg124
F0.5
sg125
I1
sg126
F0.01
sg127
F0.5
sg128
I1001
sg129
I5
sg130
I1
sg131
F350.0
sg132
I100
sg133
I1
sg134
I50
sg135
I30
sg136
F0.9
sg137
F6.0
s(dp153
g139
g21
(g25
S'\x9a\x99\x99\x99\x99\x99\xc9?'
p154
tp155
Rp156
sg143
g21
(g25
S'\xc1\xc3\xb5\x8bZ\xa0\xd8?'
p157
tp158
Rp159
sg147
g21
(g25
S'\x98\x99\x99\x99\x99\x99\xc9?'
p160
tp161
Rp162
stp163
a(I1491009550
(dp164
g121
F0.01
sg122
F0.5
sg123
I00
sg124
F0.5
sg125
I1
sg126
F0.01
sg127
F1.0
sg128
I1001
sg129
I5
sg130
I1
sg131
F350.0
sg132
I100
sg133
I1
sg134
I50
sg135
I30
sg136
F0.9
sg137
F6.0
s(dp165
g139
g21
(g25
S'\x9a\x99\x99\x99\x99\x99\xc9?'
p166
tp167
Rp168
sg143
g21
(g25
S'>Dr\xde\xcf\xa0\xd8?'
p169
tp170
Rp171
sg147
g21
(g25
S'\x98\x99\x99\x99\x99\x99\xc9?'
p172
tp173
Rp174
stp175
a(I1491009628
(dp176
S'learn_rate'
p177
F0.01
sS'b'
p178
F0.5
sS'shuffle'
p179
I00
sS'f'
p180
F0.5
sS'nbr_patterns'
p181
I5
sS'reapeat_sequence'
p182
I1
sS'ham_dist_threshold'
p183
F0.01
sS'eps'
p184
I0
sS'N'
p185
I1001
sS'initial_mean'
p186
I1
sS'initial_variance'
p187
I1
sS'test_length'
p188
I100
sS'theta'
p189
F350.0
sS'nb_iter'
p190
I50
sS'test_nb_iter'
p191
I30
sS'successful_storage_rate'
p192
F0.9
sS'gamma'
p193
F6.0
s(dp194
S'successful_storage'
p195
g21
(g25
S'\x00\x00\x00\x00\x00\x00\x00\x00'
p196
tp197
Rp198
sS'avg_dist'
p199
g21
(g25
S'\xe2R\xcd\xcc\xbfv\xdb?'
p200
tp201
Rp202
sS'err'
p203
g21
(g25
S'\x00\x00\x00\x00\x00\x00\x00\x00'
p204
tp205
Rp206
stp207
a(I1491009646
(dp208
g177
F0.01
sg178
F0.5
sg179
I00
sg180
F0.5
sg181
I5
sg182
I1
sg183
F0.01
sg184
F0.01
sg185
I1001
sg186
I1
sg187
I1
sg188
I100
sg189
F350.0
sg190
I50
sg191
I30
sg192
F0.9
sg193
F6.0
s(dp209
g195
g21
(g25
S'\x00\x00\x00\x00\x00\x00\x00\x00'
p210
tp211
Rp212
sg199
g21
(g25
S'\x83\x066\x12\xff\r\xdb?'
p213
tp214
Rp215
sg203
g21
(g25
S'\x00\x00\x00\x00\x00\x00\x00\x00'
p216
tp217
Rp218
stp219
a(I1491009664
(dp220
g177
F0.01
sg178
F0.5
sg179
I00
sg180
F0.5
sg181
I5
sg182
I1
sg183
F0.01
sg184
F0.02
sg185
I1001
sg186
I1
sg187
I1
sg188
I100
sg189
F350.0
sg190
I50
sg191
I30
sg192
F0.9
sg193
F6.0
s(dp221
g195
g21
(g25
S'\x00\x00\x00\x00\x00\x00\x00\x00'
p222
tp223
Rp224
sg199
g21
(g25
S'x\xc1\x13\xa8E\x1a\xdb?'
p225
tp226
Rp227
sg203
g21
(g25
S'\x00\x00\x00\x00\x00\x00\x00\x00'
p228
tp229
Rp230
stp231
a(I1491009684
(dp232
g177
F0.01
sg178
F0.5
sg179
I00
sg180
F0.5
sg181
I5
sg182
I1
sg183
F0.01
sg184
F0.05
sg185
I1001
sg186
I1
sg187
I1
sg188
I100
sg189
F350.0
sg190
I50
sg191
I30
sg192
F0.9
sg193
F6.0
s(dp233
g195
g21
(g25
S'\x00\x00\x00\x00\x00\x00\x00\x00'
p234
tp235
Rp236
sg199
g21
(g25
S'\xe6\xb3\x02\xeb\xf6j\xdb?'
p237
tp238
Rp239
sg203
g21
(g25
S'\x00\x00\x00\x00\x00\x00\x00\x00'
p240
tp241
Rp242
stp243
a(I1491009704
(dp244
g177
F0.01
sg178
F0.5
sg179
I00
sg180
F0.5
sg181
I5
sg182
I1
sg183
F0.01
sg184
F0.1
sg185
I1001
sg186
I1
sg187
I1
sg188
I100
sg189
F350.0
sg190
I50
sg191
I30
sg192
F0.9
sg193
F6.0
s(dp245
g195
g21
(g25
S'\x00\x00\x00\x00\x00\x00\x00\x00'
p246
tp247
Rp248
sg199
g21
(g25
S'\xbe\x0c\xe3\x8dR\xfa\xda?'
p249
tp250
Rp251
sg203
g21
(g25
S'\x00\x00\x00\x00\x00\x00\x00\x00'
p252
tp253
Rp254
stp255
a(I1491009724
(dp256
g177
F0.01
sg178
F0.5
sg179
I00
sg180
F0.5
sg181
I5
sg182
I1
sg183
F0.01
sg184
F0.2
sg185
I1001
sg186
I1
sg187
I1
sg188
I100
sg189
F350.0
sg190
I50
sg191
I30
sg192
F0.9
sg193
F6.0
s(dp257
g195
g21
(g25
S'\x00\x00\x00\x00\x00\x00\x00\x00'
p258
tp259
Rp260
sg199
g21
(g25
S'\x80\xc2{>$i\xda?'
p261
tp262
Rp263
sg203
g21
(g25
S'\x00\x00\x00\x00\x00\x00\x00\x00'
p264
tp265
Rp266
stp267
a(I1491009741
(dp268
g177
F0.01
sg178
F0.5
sg179
I00
sg180
F0.5
sg181
I5
sg182
I1
sg183
F0.01
sg184
F0.5
sg185
I1001
sg186
I1
sg187
I1
sg188
I100
sg189
F350.0
sg190
I50
sg191
I30
sg192
F0.9
sg193
F6.0
s(dp269
g195
g21
(g25
S'\x9a\x99\x99\x99\x99\x99\xc9?'
p270
tp271
Rp272
sg199
g21
(g25
S'&\xf8"\x0c\xc4\n\xda?'
p273
tp274
Rp275
sg203
g21
(g25
S'\x98\x99\x99\x99\x99\x99\xc9?'
p276
tp277
Rp278
stp279
a(I1491009763
(dp280
g177
F0.01
sg178
F0.5
sg179
I00
sg180
F0.5
sg181
I5
sg182
I1
sg183
F0.01
sg184
F1.0
sg185
I1001
sg186
I1
sg187
I1
sg188
I100
sg189
F350.0
sg190
I50
sg191
I30
sg192
F0.9
sg193
F6.0
s(dp281
g195
g21
(g25
S'\x9a\x99\x99\x99\x99\x99\xc9?'
p282
tp283
Rp284
sg199
g21
(g25
S'{\xcf\x83kr\x0f\xda?'
p285
tp286
Rp287
sg203
g21
(g25
S'\x98\x99\x99\x99\x99\x99\xc9?'
p288
tp289
Rp290
stp291
a(I1491009782
(dp292
g177
F0.01
sg178
F0.5
sg179
I00
sg180
F0.5
sg181
I5
sg182
I1
sg183
F0.01
sg184
F2.0
sg185
I1001
sg186
I1
sg187
I1
sg188
I100
sg189
F350.0
sg190
I50
sg191
I30
sg192
F0.9
sg193
F6.0
s(dp293
g195
g21
(g25
S'\x9a\x99\x99\x99\x99\x99\xc9?'
p294
tp295
Rp296
sg199
g21
(g25
S'{\xcf\x83kr\x0f\xda?'
p297
tp298
Rp299
sg203
g21
(g25
S'\x98\x99\x99\x99\x99\x99\xc9?'
p300
tp301
Rp302
stp303
a(I1491009809
(dp304
g177
F0.01
sg178
F0.5
sg179
I00
sg180
F0.5
sg181
I5
sg182
I1
sg183
F0.01
sg184
F5.0
sg185
I1001
sg186
I1
sg187
I1
sg188
I100
sg189
F350.0
sg190
I50
sg191
I30
sg192
F0.9
sg193
F6.0
s(dp305
g195
g21
(g25
S'\x00\x00\x00\x00\x00\x00\x00\x00'
p306
tp307
Rp308
sg199
g21
(g25
S'0\xfa\xb9\xfc?\xd1\xd9?'
p309
tp310
Rp311
sg203
g21
(g25
S'\x00\x00\x00\x00\x00\x00\x00\x00'
p312
tp313
Rp314
stp315
a(I1491009833
(dp316
g177
F0.01
sg178
F0.5
sg179
I00
sg180
F0.5
sg181
I5
sg182
I1
sg183
F0.01
sg184
F10.0
sg185
I1001
sg186
I1
sg187
I1
sg188
I100
sg189
F350.0
sg190
I50
sg191
I30
sg192
F0.9
sg193
F6.0
s(dp317
g195
g21
(g25
S'\x9a\x99\x99\x99\x99\x99\xc9?'
p318
tp319
Rp320
sg199
g21
(g25
S'\x86FQ\xb7\x00:\xda?'
p321
tp322
Rp323
sg203
g21
(g25
S'\x98\x99\x99\x99\x99\x99\xc9?'
p324
tp325
Rp326
stp327
a(I1491009966
(dp328
S'learn_rate'
p329
F0.01
sS'b'
p330
F0.5
sS'shuffle'
p331
I00
sS'f'
p332
F0.5
sS'reapeat_sequence'
p333
I1
sS'ham_dist_threshold'
p334
F0.01
sS'eps'
p335
I0
sS'N'
p336
I1001
sS'initial_mean'
p337
I1
sS'initial_variance'
p338
I1
sS'theta'
p339
F350.0
sS'test_length'
p340
I100
sS'nbr_patterns'
p341
I5
sS'nb_iter'
p342
I50
sS'test_nb_iter'
p343
I30
sS'successful_storage_rate'
p344
F0.9
sS'gamma'
p345
F12.0
s(dp346
S'successful_storage'
p347
g21
(g25
S'\x00\x00\x00\x00\x00\x00\x00\x00'
p348
tp349
Rp350
sS'avg_dist'
p351
g21
(g25
S'\x83\\\xfa\xf3c"\xdb?'
p352
tp353
Rp354
sS'err'
p355
g21
(g25
S'\x00\x00\x00\x00\x00\x00\x00\x00'
p356
tp357
Rp358
stp359
a(I1491009989
(dp360
g329
F0.01
sg330
F0.5
sg331
I00
sg332
F0.5
sg333
I1
sg334
F0.01
sg335
F0.01
sg336
I1001
sg337
I1
sg338
I1
sg339
F350.0
sg340
I100
sg341
I5
sg342
I50
sg343
I30
sg344
F0.9
sg345
F12.0
s(dp361
g347
g21
(g25
S'\x00\x00\x00\x00\x00\x00\x00\x00'
p362
tp363
Rp364
sg351
g21
(g25
S'@4&\xc3UZ\xdb?'
p365
tp366
Rp367
sg355
g21
(g25
S'\x00\x00\x00\x00\x00\x00\x00\x00'
p368
tp369
Rp370
stp371
a(I1491010014
(dp372
g329
F0.01
sg330
F0.5
sg331
I00
sg332
F0.5
sg333
I1
sg334
F0.01
sg335
F0.02
sg336
I1001
sg337
I1
sg338
I1
sg339
F350.0
sg340
I100
sg341
I5
sg342
I50
sg343
I30
sg344
F0.9
sg345
F12.0
s(dp373
g347
g21
(g25
S'\x00\x00\x00\x00\x00\x00\x00\x00'
p374
tp375
Rp376
sg351
g21
(g25
S'\x13\xb3l\x0bp\x04\xdb?'
p377
tp378
Rp379
sg355
g21
(g25
S'\x00\x00\x00\x00\x00\x00\x00\x00'
p380
tp381
Rp382
stp383
a(I1491010040
(dp384
g329
F0.01
sg330
F0.5
sg331
I00
sg332
F0.5
sg333
I1
sg334
F0.01
sg335
F0.05
sg336
I1001
sg337
I1
sg338
I1
sg339
F350.0
sg340
I100
sg341
I5
sg342
I50
sg343
I30
sg344
F0.9
sg345
F12.0
s(dp385
g347
g21
(g25
S'\x00\x00\x00\x00\x00\x00\x00\x00'
p386
tp387
Rp388
sg351
g21
(g25
S'\xea\xa7bT\x87\x13\xdb?'
p389
tp390
Rp391
sg355
g21
(g25
S'\x00\x00\x00\x00\x00\x00\x00\x00'
p392
tp393
Rp394
stp395
a(I1491010065
(dp396
g329
F0.01
sg330
F0.5
sg331
I00
sg332
F0.5
sg333
I1
sg334
F0.01
sg335
F0.1
sg336
I1001
sg337
I1
sg338
I1
sg339
F350.0
sg340
I100
sg341
I5
sg342
I50
sg343
I30
sg344
F0.9
sg345
F12.0
s(dp397
g347
g21
(g25
S'\x00\x00\x00\x00\x00\x00\x00\x00'
p398
tp399
Rp400
sg351
g21
(g25
S'8\xbf\xefgC\xf6\xda?'
p401
tp402
Rp403
sg355
g21
(g25
S'\x00\x00\x00\x00\x00\x00\x00\x00'
p404
tp405
Rp406
stp407
a(I1491010087
(dp408
g329
F0.01
sg330
F0.5
sg331
I00
sg332
F0.5
sg333
I1
sg334
F0.01
sg335
F0.2
sg336
I1001
sg337
I1
sg338
I1
sg339
F350.0
sg340
I100
sg341
I5
sg342
I50
sg343
I30
sg344
F0.9
sg345
F12.0
s(dp409
g347
g21
(g25
S'\x00\x00\x00\x00\x00\x00\x00\x00'
p410
tp411
Rp412
sg351
g21
(g25
S'\xee\xe4\xc8\xbd{\xb3\xda?'
p413
tp414
Rp415
sg355
g21
(g25
S'\x00\x00\x00\x00\x00\x00\x00\x00'
p416
tp417
Rp418
stp419
a(I1491010113
(dp420
g329
F0.01
sg330
F0.5
sg331
I00
sg332
F0.5
sg333
I1
sg334
F0.01
sg335
F0.5
sg336
I1001
sg337
I1
sg338
I1
sg339
F350.0
sg340
I100
sg341
I5
sg342
I50
sg343
I30
sg344
F0.9
sg345
F12.0
s(dp421
g347
g21
(g25
S'\x00\x00\x00\x00\x00\x00\x00\x00'
p422
tp423
Rp424
sg351
g21
(g25
S'\x06\x11\x8d\xaf\xc42\xda?'
p425
tp426
Rp427
sg355
g21
(g25
S'\x00\x00\x00\x00\x00\x00\x00\x00'
p428
tp429
Rp430
stp431
a(I1491010135
(dp432
g329
F0.01
sg330
F0.5
sg331
I00
sg332
F0.5
sg333
I1
sg334
F0.01
sg335
F1.0
sg336
I1001
sg337
I1
sg338
I1
sg339
F350.0
sg340
I100
sg341
I5
sg342
I50
sg343
I30
sg344
F0.9
sg345
F12.0
s(dp433
g347
g21
(g25
S'\x9a\x99\x99\x99\x99\x99\xc9?'
p434
tp435
Rp436
sg351
g21
(g25
S'~X\xb6\x1f\xe4\xe4\xd9?'
p437
tp438
Rp439
sg355
g21
(g25
S'\x98\x99\x99\x99\x99\x99\xc9?'
p440
tp441
Rp442
stp443
a(I1491010158
(dp444
g329
F0.01
sg330
F0.5
sg331
I00
sg332
F0.5
sg333
I1
sg334
F0.01
sg335
F2.0
sg336
I1001
sg337
I1
sg338
I1
sg339
F350.0
sg340
I100
sg341
I5
sg342
I50
sg343
I30
sg344
F0.9
sg345
F12.0
s(dp445
g347
g21
(g25
S'\x9a\x99\x99\x99\x99\x99\xc9?'
p446
tp447
Rp448
sg351
g21
(g25
S'~X\xb6\x1f\xe4\xe4\xd9?'
p449
tp450
Rp451
sg355
g21
(g25
S'\x98\x99\x99\x99\x99\x99\xc9?'
p452
tp453
Rp454
stp455
a(I1491010180
(dp456
g329
F0.01
sg330
F0.5
sg331
I00
sg332
F0.5
sg333
I1
sg334
F0.01
sg335
F5.0
sg336
I1001
sg337
I1
sg338
I1
sg339
F350.0
sg340
I100
sg341
I5
sg342
I50
sg343
I30
sg344
F0.9
sg345
F12.0
s(dp457
g347
g21
(g25
S'\x9a\x99\x99\x99\x99\x99\xc9?'
p458
tp459
Rp460
sg351
g21
(g25
S'~X\xb6\x1f\xe4\xe4\xd9?'
p461
tp462
Rp463
sg355
g21
(g25
S'\x98\x99\x99\x99\x99\x99\xc9?'
p464
tp465
Rp466
stp467
a(I1491010204
(dp468
g329
F0.01
sg330
F0.5
sg331
I00
sg332
F0.5
sg333
I1
sg334
F0.01
sg335
F10.0
sg336
I1001
sg337
I1
sg338
I1
sg339
F350.0
sg340
I100
sg341
I5
sg342
I50
sg343
I30
sg344
F0.9
sg345
F12.0
s(dp469
g347
g21
(g25
S'\x9a\x99\x99\x99\x99\x99\xc9?'
p470
tp471
Rp472
sg351
g21
(g25
S'~X\xb6\x1f\xe4\xe4\xd9?'
p473
tp474
Rp475
sg355
g21
(g25
S'\x98\x99\x99\x99\x99\x99\xc9?'
p476
tp477
Rp478
stp479
a(I1491010534
(dp480
S'learn_rate'
p481
F0.01
sS'b'
p482
F0.5
sS'shuffle'
p483
I00
sS'f'
p484
F0.5
sS'reapeat_sequence'
p485
I1
sS'ham_dist_threshold'
p486
F0.01
sS'eps'
p487
I0
sS'N'
p488
I1001
sS'initial_mean'
p489
I1
sS'nbr_patterns'
p490
I5
sS'initial_variance'
p491
I1
sS'test_length'
p492
I100
sS'theta'
p493
F350.0
sS'nb_iter'
p494
I50
sS'test_nb_iter'
p495
I30
sS'successful_storage_rate'
p496
F0.9
sS'gamma'
p497
F9.0
s(dp498
S'successful_storage'
p499
g21
(g25
S'\x00\x00\x00\x00\x00\x00\x00\x00'
p500
tp501
Rp502
sS'avg_dist'
p503
g21
(g25
S'\x90ZR\xf4\xdb\xa9\xda?'
p504
tp505
Rp506
sS'err'
p507
g21
(g25
S'\x00\x00\x00\x00\x00\x00\x00\x00'
p508
tp509
Rp510
stp511
a(I1491010564
(dp512
g481
F0.01
sg482
F0.5
sg483
I00
sg484
F0.5
sg485
I1
sg486
F0.01
sg487
F0.01
sg488
I1001
sg489
I1
sg490
I5
sg491
I1
sg492
I100
sg493
F350.0
sg494
I50
sg495
I30
sg496
F0.9
sg497
F9.0
s(dp513
g499
g21
(g25
S'\x00\x00\x00\x00\x00\x00\x00\x00'
p514
tp515
Rp516
sg503
g21
(g25
S'\x9d\x16\x9d\x04}\x03\xdb?'
p517
tp518
Rp519
sg507
g21
(g25
S'\x00\x00\x00\x00\x00\x00\x00\x00'
p520
tp521
Rp522
stp523
a(I1491010593
(dp524
g481
F0.01
sg482
F0.5
sg483
I00
sg484
F0.5
sg485
I1
sg486
F0.01
sg487
F0.02
sg488
I1001
sg489
I1
sg490
I5
sg491
I1
sg492
I100
sg493
F350.0
sg494
I50
sg495
I30
sg496
F0.9
sg497
F9.0
s(dp525
g499
g21
(g25
S'\x00\x00\x00\x00\x00\x00\x00\x00'
p526
tp527
Rp528
sg503
g21
(g25
S'~\xef\xda\xf3oM\xdb?'
p529
tp530
Rp531
sg507
g21
(g25
S'\x00\x00\x00\x00\x00\x00\x00\x00'
p532
tp533
Rp534
stp535
a(I1491010616
(dp536
g481
F0.01
sg482
F0.5
sg483
I00
sg484
F0.5
sg485
I1
sg486
F0.01
sg487
F0.05
sg488
I1001
sg489
I1
sg490
I5
sg491
I1
sg492
I100
sg493
F350.0
sg494
I50
sg495
I30
sg496
F0.9
sg497
F9.0
s(dp537
g499
g21
(g25
S'\x00\x00\x00\x00\x00\x00\x00\x00'
p538
tp539
Rp540
sg503
g21
(g25
S'\x15\xf1K\x1aO\xa5\xda?'
p541
tp542
Rp543
sg507
g21
(g25
S'\x00\x00\x00\x00\x00\x00\x00\x00'
p544
tp545
Rp546
stp547
a(I1491010642
(dp548
g481
F0.01
sg482
F0.5
sg483
I00
sg484
F0.5
sg485
I1
sg486
F0.01
sg487
F0.1
sg488
I1001
sg489
I1
sg490
I5
sg491
I1
sg492
I100
sg493
F350.0
sg494
I50
sg495
I30
sg496
F0.9
sg497
F9.0
s(dp549
g499
g21
(g25
S'\x00\x00\x00\x00\x00\x00\x00\x00'
p550
tp551
Rp552
sg503
g21
(g25
S'\xcd\xe5M\x8e\xf6g\xda?'
p553
tp554
Rp555
sg507
g21
(g25
S'\x00\x00\x00\x00\x00\x00\x00\x00'
p556
tp557
Rp558
stp559
a(I1491010666
(dp560
g481
F0.01
sg482
F0.5
sg483
I00
sg484
F0.5
sg485
I1
sg486
F0.01
sg487
F0.2
sg488
I1001
sg489
I1
sg490
I5
sg491
I1
sg492
I100
sg493
F350.0
sg494
I50
sg495
I30
sg496
F0.9
sg497
F9.0
s(dp561
g499
g21
(g25
S'\x00\x00\x00\x00\x00\x00\x00\x00'
p562
tp563
Rp564
sg503
g21
(g25
S'e\x15<\xb5\xb2i\xda?'
p565
tp566
Rp567
sg507
g21
(g25
S'\x00\x00\x00\x00\x00\x00\x00\x00'
p568
tp569
Rp570
stp571
a(I1491010690
(dp572
g481
F0.01
sg482
F0.5
sg483
I00
sg484
F0.5
sg485
I1
sg486
F0.01
sg487
F0.5
sg488
I1001
sg489
I1
sg490
I5
sg491
I1
sg492
I100
sg493
F350.0
sg494
I50
sg495
I30
sg496
F0.9
sg497
F9.0
s(dp573
g499
g21
(g25
S'\x9a\x99\x99\x99\x99\x99\xc9?'
p574
tp575
Rp576
sg503
g21
(g25
S'\x80\xa9x \r0\xda?'
p577
tp578
Rp579
sg507
g21
(g25
S'\x98\x99\x99\x99\x99\x99\xc9?'
p580
tp581
Rp582
stp583
a(I1491010715
(dp584
g481
F0.01
sg482
F0.5
sg483
I00
sg484
F0.5
sg485
I1
sg486
F0.01
sg487
F1.0
sg488
I1001
sg489
I1
sg490
I5
sg491
I1
sg492
I100
sg493
F350.0
sg494
I50
sg495
I30
sg496
F0.9
sg497
F9.0
s(dp585
g499
g21
(g25
S'\x9a\x99\x99\x99\x99\x99\xc9?'
p586
tp587
Rp588
sg503
g21
(g25
S'\x100\xa4\xce\x18G\xda?'
p589
tp590
Rp591
sg507
g21
(g25
S'\x98\x99\x99\x99\x99\x99\xc9?'
p592
tp593
Rp594
stp595
a(I1491010735
(dp596
g481
F0.01
sg482
F0.5
sg483
I00
sg484
F0.5
sg485
I1
sg486
F0.01
sg487
F2.0
sg488
I1001
sg489
I1
sg490
I5
sg491
I1
sg492
I100
sg493
F350.0
sg494
I50
sg495
I30
sg496
F0.9
sg497
F9.0
s(dp597
g499
g21
(g25
S'\x9a\x99\x99\x99\x99\x99\xc9?'
p598
tp599
Rp600
sg503
g21
(g25
S'\x100\xa4\xce\x18G\xda?'
p601
tp602
Rp603
sg507
g21
(g25
S'\x98\x99\x99\x99\x99\x99\xc9?'
p604
tp605
Rp606
stp607
a(I1491010756
(dp608
g481
F0.01
sg482
F0.5
sg483
I00
sg484
F0.5
sg485
I1
sg486
F0.01
sg487
F5.0
sg488
I1001
sg489
I1
sg490
I5
sg491
I1
sg492
I100
sg493
F350.0
sg494
I50
sg495
I30
sg496
F0.9
sg497
F9.0
s(dp609
g499
g21
(g25
S'\x9a\x99\x99\x99\x99\x99\xc9?'
p610
tp611
Rp612
sg503
g21
(g25
S'\x100\xa4\xce\x18G\xda?'
p613
tp614
Rp615
sg507
g21
(g25
S'\x98\x99\x99\x99\x99\x99\xc9?'
p616
tp617
Rp618
stp619
a(I1491010777
(dp620
g481
F0.01
sg482
F0.5
sg483
I00
sg484
F0.5
sg485
I1
sg486
F0.01
sg487
F10.0
sg488
I1001
sg489
I1
sg490
I5
sg491
I1
sg492
I100
sg493
F350.0
sg494
I50
sg495
I30
sg496
F0.9
sg497
F9.0
s(dp621
g499
g21
(g25
S'\x9a\x99\x99\x99\x99\x99\xc9?'
p622
tp623
Rp624
sg503
g21
(g25
S'\xdb\xb6\xb2B\x88\xf8\xd9?'
p625
tp626
Rp627
sg507
g21
(g25
S'\x98\x99\x99\x99\x99\x99\xc9?'
p628
tp629
Rp630
stp631
a(I1491011785
(dp632
S'learn_rate'
p633
F0.01
sS'b'
p634
F0.5
sS'shuffle'
p635
I00
sS'f'
p636
F0.5
sS'reapeat_sequence'
p637
I1
sS'ham_dist_threshold'
p638
F0.01
sS'eps'
p639
I0
sS'N'
p640
I1001
sS'nbr_patterns'
p641
I5
sS'initial_variance'
p642
I1
sS'theta'
p643
F350.0
sS'test_length'
p644
I100
sS'initial_mean'
p645
I1
sS'nb_iter'
p646
I50
sS'test_nb_iter'
p647
I30
sS'successful_storage_rate'
p648
F0.9
sS'gamma'
p649
F3.0
s(dp650
S'successful_storage'
p651
g21
(g25
S'\x00\x00\x00\x00\x00\x00\x00\x00'
p652
tp653
Rp654
sS'avg_dist'
p655
g21
(g25
S"\x9b.'}\xa9;\xdb?"
p656
tp657
Rp658
sS'err'
p659
g21
(g25
S'\x00\x00\x00\x00\x00\x00\x00\x00'
p660
tp661
Rp662
stp663
a(I1491011808
(dp664
g633
F0.01
sg634
F0.5
sg635
I00
sg636
F0.5
sg637
I1
sg638
F0.01
sg639
F0.01
sg640
I1001
sg641
I5
sg642
I1
sg643
F350.0
sg644
I100
sg645
I1
sg646
I50
sg647
I30
sg648
F0.9
sg649
F3.0
s(dp665
g651
g21
(g25
S'\x00\x00\x00\x00\x00\x00\x00\x00'
p666
tp667
Rp668
sg655
g21
(g25
S'\xf2\x05\x88\xdcW@\xdb?'
p669
tp670
Rp671
sg659
g21
(g25
S'\x00\x00\x00\x00\x00\x00\x00\x00'
p672
tp673
Rp674
stp675
a(I1491011836
(dp676
g633
F0.01
sg634
F0.5
sg635
I00
sg636
F0.5
sg637
I1
sg638
F0.01
sg639
F0.02
sg640
I1001
sg641
I5
sg642
I1
sg643
F350.0
sg644
I100
sg645
I1
sg646
I50
sg647
I30
sg648
F0.9
sg649
F3.0
s(dp677
g651
g21
(g25
S'\x00\x00\x00\x00\x00\x00\x00\x00'
p678
tp679
Rp680
sg655
g21
(g25
S'\xdd\xf4L\xea\x95\x0e\xdb?'
p681
tp682
Rp683
sg659
g21
(g25
S'\x00\x00\x00\x00\x00\x00\x00\x00'
p684
tp685
Rp686
stp687
a(I1491011865
(dp688
g633
F0.01
sg634
F0.5
sg635
I00
sg636
F0.5
sg637
I1
sg638
F0.01
sg639
F0.05
sg640
I1001
sg641
I5
sg642
I1
sg643
F350.0
sg644
I100
sg645
I1
sg646
I50
sg647
I30
sg648
F0.9
sg649
F3.0
s(dp689
g651
g21
(g25
S'\x00\x00\x00\x00\x00\x00\x00\x00'
p690
tp691
Rp692
sg655
g21
(g25
S'X\x9bo\xe2\xc9)\xdb?'
p693
tp694
Rp695
sg659
g21
(g25
S'\x00\x00\x00\x00\x00\x00\x00\x00'
p696
tp697
Rp698
stp699
a(I1491011897
(dp700
g633
F0.01
sg634
F0.5
sg635
I00
sg636
F0.5
sg637
I1
sg638
F0.01
sg639
F0.1
sg640
I1001
sg641
I5
sg642
I1
sg643
F350.0
sg644
I100
sg645
I1
sg646
I50
sg647
I30
sg648
F0.9
sg649
F3.0
s(dp701
g651
g21
(g25
S'\x00\x00\x00\x00\x00\x00\x00\x00'
p702
tp703
Rp704
sg655
g21
(g25
S':\n2\xfe\xc9x\xda?'
p705
tp706
Rp707
sg659
g21
(g25
S'\x00\x00\x00\x00\x00\x00\x00\x00'
p708
tp709
Rp710
stp711
a(I1491011920
(dp712
g633
F0.01
sg634
F0.5
sg635
I00
sg636
F0.5
sg637
I1
sg638
F0.01
sg639
F0.2
sg640
I1001
sg641
I5
sg642
I1
sg643
F350.0
sg644
I100
sg645
I1
sg646
I50
sg647
I30
sg648
F0.9
sg649
F3.0
s(dp713
g651
g21
(g25
S'\x00\x00\x00\x00\x00\x00\x00\x00'
p714
tp715
Rp716
sg655
g21
(g25
S'*\xf8}f\x1dF\xda?'
p717
tp718
Rp719
sg659
g21
(g25
S'\x00\x00\x00\x00\x00\x00\x00\x00'
p720
tp721
Rp722
stp723
a(I1491011947
(dp724
g633
F0.01
sg634
F0.5
sg635
I00
sg636
F0.5
sg637
I1
sg638
F0.01
sg639
F0.5
sg640
I1001
sg641
I5
sg642
I1
sg643
F350.0
sg644
I100
sg645
I1
sg646
I50
sg647
I30
sg648
F0.9
sg649
F3.0
s(dp725
g651
g21
(g25
S'\x9a\x99\x99\x99\x99\x99\xc9?'
p726
tp727
Rp728
sg655
g21
(g25
S'&=@\x92\x01\x00\xd9?'
p729
tp730
Rp731
sg659
g21
(g25
S'\x98\x99\x99\x99\x99\x99\xc9?'
p732
tp733
Rp734
stp735
a(I1491011975
(dp736
g633
F0.01
sg634
F0.5
sg635
I00
sg636
F0.5
sg637
I1
sg638
F0.01
sg639
F1.0
sg640
I1001
sg641
I5
sg642
I1
sg643
F350.0
sg644
I100
sg645
I1
sg646
I50
sg647
I30
sg648
F0.9
sg649
F3.0
s(dp737
g651
g21
(g25
S'\x9a\x99\x99\x99\x99\x99\xc9?'
p738
tp739
Rp740
sg655
g21
(g25
S'\xfe\xc1\xab\xead7\xd9?'
p741
tp742
Rp743
sg659
g21
(g25
S'\x98\x99\x99\x99\x99\x99\xc9?'
p744
tp745
Rp746
stp747
a(I1491012002
(dp748
g633
F0.01
sg634
F0.5
sg635
I00
sg636
F0.5
sg637
I1
sg638
F0.01
sg639
F2.0
sg640
I1001
sg641
I5
sg642
I1
sg643
F350.0
sg644
I100
sg645
I1
sg646
I50
sg647
I30
sg648
F0.9
sg649
F3.0
s(dp749
g651
g21
(g25
S'\x00\x00\x00\x00\x00\x00\x00\x00'
p750
tp751
Rp752
sg655
g21
(g25
S'/\xe8\x99\xfb-\xb1\xd8?'
p753
tp754
Rp755
sg659
g21
(g25
S'\x00\x00\x00\x00\x00\x00\x00\x00'
p756
tp757
Rp758
stp759
a(I1491012029
(dp760
g633
F0.01
sg634
F0.5
sg635
I00
sg636
F0.5
sg637
I1
sg638
F0.01
sg639
F5.0
sg640
I1001
sg641
I5
sg642
I1
sg643
F350.0
sg644
I100
sg645
I1
sg646
I50
sg647
I30
sg648
F0.9
sg649
F3.0
s(dp761
g651
g21
(g25
S'\x9a\x99\x99\x99\x99\x99\xc9?'
p762
tp763
Rp764
sg655
g21
(g25
S'\xdb\x92-\xd9\x92-\xd9?'
p765
tp766
Rp767
sg659
g21
(g25
S'\x98\x99\x99\x99\x99\x99\xc9?'
p768
tp769
Rp770
stp771
a(I1491012058
(dp772
g633
F0.01
sg634
F0.5
sg635
I00
sg636
F0.5
sg637
I1
sg638
F0.01
sg639
F10.0
sg640
I1001
sg641
I5
sg642
I1
sg643
F350.0
sg644
I100
sg645
I1
sg646
I50
sg647
I30
sg648
F0.9
sg649
F3.0
s(dp773
g651
g21
(g25
S'\x9a\x99\x99\x99\x99\x99\xc9?'
p774
tp775
Rp776
sg655
g21
(g25
S'\xd8\x1b`\x8d\x04\x03\xd9?'
p777
tp778
Rp779
sg659
g21
(g25
S'\x98\x99\x99\x99\x99\x99\xc9?'
p780
tp781
Rp782
stp783
a(I1491012119
(dp784
S'learn_rate'
p785
F0.01
sS'b'
p786
F0.5
sS'shuffle'
p787
I00
sS'f'
p788
F0.5
sS'nbr_patterns'
p789
I5
sS'reapeat_sequence'
p790
I1
sS'ham_dist_threshold'
p791
F0.01
sS'eps'
p792
I0
sS'N'
p793
I1001
sS'initial_mean'
p794
I1
sS'initial_variance'
p795
I1
sS'test_length'
p796
I100
sS'theta'
p797
F350.0
sS'nb_iter'
p798
I50
sS'test_nb_iter'
p799
I30
sS'successful_storage_rate'
p800
F0.9
sS'gamma'
p801
F4.0
s(dp802
S'successful_storage'
p803
g21
(g25
S'\x00\x00\x00\x00\x00\x00\x00\x00'
p804
tp805
Rp806
sS'avg_dist'
p807
g21
(g25
S'\x05b`\xbf\xf9/\xdb?'
p808
tp809
Rp810
sS'err'
p811
g21
(g25
S'\x00\x00\x00\x00\x00\x00\x00\x00'
p812
tp813
Rp814
stp815
a(I1491012142
(dp816
g785
F0.01
sg786
F0.5
sg787
I00
sg788
F0.5
sg789
I5
sg790
I1
sg791
F0.01
sg792
F0.01
sg793
I1001
sg794
I1
sg795
I1
sg796
I100
sg797
F350.0
sg798
I50
sg799
I30
sg800
F0.9
sg801
F4.0
s(dp817
g803
g21
(g25
S'\x00\x00\x00\x00\x00\x00\x00\x00'
p818
tp819
Rp820
sg807
g21
(g25
S'\x0e\x9c\xb6\x92\x87\x08\xdb?'
p821
tp822
Rp823
sg811
g21
(g25
S'\x00\x00\x00\x00\x00\x00\x00\x00'
p824
tp825
Rp826
stp827
a(I1491012168
(dp828
g785
F0.01
sg786
F0.5
sg787
I00
sg788
F0.5
sg789
I5
sg790
I1
sg791
F0.01
sg792
F0.02
sg793
I1001
sg794
I1
sg795
I1
sg796
I100
sg797
F350.0
sg798
I50
sg799
I30
sg800
F0.9
sg801
F4.0
s(dp829
g803
g21
(g25
S'\x00\x00\x00\x00\x00\x00\x00\x00'
p830
tp831
Rp832
sg807
g21
(g25
S'\xe5k\xbf\xdb\xca\xfd\xda?'
p833
tp834
Rp835
sg811
g21
(g25
S'\x00\x00\x00\x00\x00\x00\x00\x00'
p836
tp837
Rp838
stp839
a(I1491012197
(dp840
g785
F0.01
sg786
F0.5
sg787
I00
sg788
F0.5
sg789
I5
sg790
I1
sg791
F0.01
sg792
F0.05
sg793
I1001
sg794
I1
sg795
I1
sg796
I100
sg797
F350.0
sg798
I50
sg799
I30
sg800
F0.9
sg801
F4.0
s(dp841
g803
g21
(g25
S'\x00\x00\x00\x00\x00\x00\x00\x00'
p842
tp843
Rp844
sg807
g21
(g25
S'],\x03=\xa7\x17\xdb?'
p845
tp846
Rp847
sg811
g21
(g25
S'\x00\x00\x00\x00\x00\x00\x00\x00'
p848
tp849
Rp850
stp851
a(I1491012225
(dp852
g785
F0.01
sg786
F0.5
sg787
I00
sg788
F0.5
sg789
I5
sg790
I1
sg791
F0.01
sg792
F0.1
sg793
I1001
sg794
I1
sg795
I1
sg796
I100
sg797
F350.0
sg798
I50
sg799
I30
sg800
F0.9
sg801
F4.0
s(dp853
g803
g21
(g25
S'\x00\x00\x00\x00\x00\x00\x00\x00'
p854
tp855
Rp856
sg807
g21
(g25
S'\x16u\xd7G\xde\xec\xda?'
p857
tp858
Rp859
sg811
g21
(g25
S'\x00\x00\x00\x00\x00\x00\x00\x00'
p860
tp861
Rp862
stp863
a(I1491012253
(dp864
g785
F0.01
sg786
F0.5
sg787
I00
sg788
F0.5
sg789
I5
sg790
I1
sg791
F0.01
sg792
F0.2
sg793
I1001
sg794
I1
sg795
I1
sg796
I100
sg797
F350.0
sg798
I50
sg799
I30
sg800
F0.9
sg801
F4.0
s(dp865
g803
g21
(g25
S'\x00\x00\x00\x00\x00\x00\x00\x00'
p866
tp867
Rp868
sg807
g21
(g25
S"\xfaN\xd8'\t\xc1\xda?"
p869
tp870
Rp871
sg811
g21
(g25
S'\x00\x00\x00\x00\x00\x00\x00\x00'
p872
tp873
Rp874
stp875
a(I1491012280
(dp876
g785
F0.01
sg786
F0.5
sg787
I00
sg788
F0.5
sg789
I5
sg790
I1
sg791
F0.01
sg792
F0.5
sg793
I1001
sg794
I1
sg795
I1
sg796
I100
sg797
F350.0
sg798
I50
sg799
I30
sg800
F0.9
sg801
F4.0
s(dp877
g803
g21
(g25
S'\x9a\x99\x99\x99\x99\x99\xc9?'
p878
tp879
Rp880
sg807
g21
(g25
S'8\xaf\xb0\xa2\xfa%\xd9?'
p881
tp882
Rp883
sg811
g21
(g25
S'\x98\x99\x99\x99\x99\x99\xc9?'
p884
tp885
Rp886
stp887
a(I1491012309
(dp888
g785
F0.01
sg786
F0.5
sg787
I00
sg788
F0.5
sg789
I5
sg790
I1
sg791
F0.01
sg792
F1.0
sg793
I1001
sg794
I1
sg795
I1
sg796
I100
sg797
F350.0
sg798
I50
sg799
I30
sg800
F0.9
sg801
F4.0
s(dp889
g803
g21
(g25
S'\x9a\x99\x99\x99\x99\x99\xc9?'
p890
tp891
Rp892
sg807
g21
(g25
S'1h\xf7G\xc5k\xd9?'
p893
tp894
Rp895
sg811
g21
(g25
S'\x98\x99\x99\x99\x99\x99\xc9?'
p896
tp897
Rp898
stp899
a(I1491012338
(dp900
g785
F0.01
sg786
F0.5
sg787
I00
sg788
F0.5
sg789
I5
sg790
I1
sg791
F0.01
sg792
F2.0
sg793
I1001
sg794
I1
sg795
I1
sg796
I100
sg797
F350.0
sg798
I50
sg799
I30
sg800
F0.9
sg801
F4.0
s(dp901
g803
g21
(g25
S'\x9a\x99\x99\x99\x99\x99\xc9?'
p902
tp903
Rp904
sg807
g21
(g25
S'\xae~\xa40\xad^\xd9?'
p905
tp906
Rp907
sg811
g21
(g25
S'\x98\x99\x99\x99\x99\x99\xc9?'
p908
tp909
Rp910
stp911
a(I1491012364
(dp912
g785
F0.01
sg786
F0.5
sg787
I00
sg788
F0.5
sg789
I5
sg790
I1
sg791
F0.01
sg792
F5.0
sg793
I1001
sg794
I1
sg795
I1
sg796
I100
sg797
F350.0
sg798
I50
sg799
I30
sg800
F0.9
sg801
F4.0
s(dp913
g803
g21
(g25
S'\x9a\x99\x99\x99\x99\x99\xc9?'
p914
tp915
Rp916
sg807
g21
(g25
S'\xeb\xf7\x95\xbc=\xad\xd9?'
p917
tp918
Rp919
sg811
g21
(g25
S'\x98\x99\x99\x99\x99\x99\xc9?'
p920
tp921
Rp922
stp923
a(I1491012391
(dp924
g785
F0.01
sg786
F0.5
sg787
I00
sg788
F0.5
sg789
I5
sg790
I1
sg791
F0.01
sg792
F1.0
sg793
I1001
sg794
I1
sg795
I1
sg796
I100
sg797
F350.0
sg798
I50
sg799
I30
sg800
F0.9
sg801
F4.0
s(dp925
g803
g21
(g25
S'\x9a\x99\x99\x99\x99\x99\xc9?'
p926
tp927
Rp928
sg807
g21
(g25
S'\xeb\xf7\x95\xbc=\xad\xd9?'
p929
tp930
Rp931
sg811
g21
(g25
S'\x98\x99\x99\x99\x99\x99\xc9?'
p932
tp933
Rp934
stp935
a(I1491097057
(dp936
S'learn_rate'
p937
F0.01
sS'b'
p938
F0.5
sS'shuffle'
p939
I00
sS'f'
p940
F0.5
sS'reapeat_sequence'
p941
I1
sS'ham_dist_threshold'
p942
F0.01
sS'eps'
p943
I0
sS'N'
p944
I1001
sS'initial_mean'
p945
I1
sS'nbr_patterns'
p946
I5
sS'initial_variance'
p947
I1
sS'test_length'
p948
I100
sS'theta'
p949
F350.0
sS'nb_iter'
p950
I50
sS'test_nb_iter'
p951
I30
sS'successful_storage_rate'
p952
F0.9
sS'gamma'
p953
F6.0
s(dp954
S'successful_storage'
p955
g21
(g25
S'\x00\x00\x00\x00\x00\x00\x00\x00'
p956
tp957
Rp958
sS'avg_dist'
p959
g21
(g25
S'z\x16\x04\x8af\xf2\xda?'
p960
tp961
Rp962
sS'err'
p963
g21
(g25
S'\x00\x00\x00\x00\x00\x00\x00\x00'
p964
tp965
Rp966
stp967
a(I1491097078
(dp968
g937
F0.01
sg938
F0.5
sg939
I00
sg940
F0.5
sg941
I1
sg942
F0.01
sg943
F0.01
sg944
I1001
sg945
I1
sg946
I5
sg947
I1
sg948
I100
sg949
F350.0
sg950
I50
sg951
I30
sg952
F0.9
sg953
F6.0
s(dp969
g955
g21
(g25
S'\x00\x00\x00\x00\x00\x00\x00\x00'
p970
tp971
Rp972
sg959
g21
(g25
S'\xf66\x04d\x8f\xff\xda?'
p973
tp974
Rp975
sg963
g21
(g25
S'\x00\x00\x00\x00\x00\x00\x00\x00'
p976
tp977
Rp978
stp979
a(I1491097095
(dp980
g937
F0.01
sg938
F0.5
sg939
I00
sg940
F0.5
sg941
I1
sg942
F0.01
sg943
F0.02
sg944
I1001
sg945
I1
sg946
I5
sg947
I1
sg948
I100
sg949
F350.0
sg950
I50
sg951
I30
sg952
F0.9
sg953
F6.0
s(dp981
g955
g21
(g25
S'\x00\x00\x00\x00\x00\x00\x00\x00'
p982
tp983
Rp984
sg959
g21
(g25
S'\x03m,V%K\xdb?'
p985
tp986
Rp987
sg963
g21
(g25
S'\x00\x00\x00\x00\x00\x00\x00\x00'
p988
tp989
Rp990
stp991
a(I1491097111
(dp992
g937
F0.01
sg938
F0.5
sg939
I00
sg940
F0.5
sg941
I1
sg942
F0.01
sg943
F0.05
sg944
I1001
sg945
I1
sg946
I5
sg947
I1
sg948
I100
sg949
F350.0
sg950
I50
sg951
I30
sg952
F0.9
sg953
F6.0
s(dp993
g955
g21
(g25
S'\x00\x00\x00\x00\x00\x00\x00\x00'
p994
tp995
Rp996
sg959
g21
(g25
S'\x1e\xc7\xb7\x93\x98\xfd\xda?'
p997
tp998
Rp999
sg963
g21
(g25
S'\x00\x00\x00\x00\x00\x00\x00\x00'
p1000
tp1001
Rp1002
stp1003
a(I1491097131
(dp1004
g937
F0.01
sg938
F0.5
sg939
I00
sg940
F0.5
sg941
I1
sg942
F0.01
sg943
F0.1
sg944
I1001
sg945
I1
sg946
I5
sg947
I1
sg948
I100
sg949
F350.0
sg950
I50
sg951
I30
sg952
F0.9
sg953
F6.0
s(dp1005
g955
g21
(g25
S'\x00\x00\x00\x00\x00\x00\x00\x00'
p1006
tp1007
Rp1008
sg959
g21
(g25
S'\xee\xf1+E#\x95\xda?'
p1009
tp1010
Rp1011
sg963
g21
(g25
S'\x00\x00\x00\x00\x00\x00\x00\x00'
p1012
tp1013
Rp1014
stp1015
a(I1491097149
(dp1016
g937
F0.01
sg938
F0.5
sg939
I00
sg940
F0.5
sg941
I1
sg942
F0.01
sg943
F0.2
sg944
I1001
sg945
I1
sg946
I5
sg947
I1
sg948
I100
sg949
F350.0
sg950
I50
sg951
I30
sg952
F0.9
sg953
F6.0
s(dp1017
g955
g21
(g25
S'\x00\x00\x00\x00\x00\x00\x00\x00'
p1018
tp1019
Rp1020
sg959
g21
(g25
S'\xc8\xffn\xf7\x9ef\xda?'
p1021
tp1022
Rp1023
sg963
g21
(g25
S'\x00\x00\x00\x00\x00\x00\x00\x00'
p1024
tp1025
Rp1026
stp1027
a(I1491097169
(dp1028
g937
F0.01
sg938
F0.5
sg939
I00
sg940
F0.5
sg941
I1
sg942
F0.01
sg943
F0.5
sg944
I1001
sg945
I1
sg946
I5
sg947
I1
sg948
I100
sg949
F350.0
sg950
I50
sg951
I30
sg952
F0.9
sg953
F6.0
s(dp1029
g955
g21
(g25
S'\x9a\x99\x99\x99\x99\x99\xc9?'
p1030
tp1031
Rp1032
sg959
g21
(g25
S'\xab&I^\xcc\x83\xd9?'
p1033
tp1034
Rp1035
sg963
g21
(g25
S'\x98\x99\x99\x99\x99\x99\xc9?'
p1036
tp1037
Rp1038
stp1039
a(I1491097189
(dp1040
g937
F0.01
sg938
F0.5
sg939
I00
sg940
F0.5
sg941
I1
sg942
F0.01
sg943
F1.0
sg944
I1001
sg945
I1
sg946
I5
sg947
I1
sg948
I100
sg949
F350.0
sg950
I50
sg951
I30
sg952
F0.9
sg953
F6.0
s(dp1041
g955
g21
(g25
S'\x9a\x99\x99\x99\x99\x99\xc9?'
p1042
tp1043
Rp1044
sg959
g21
(g25
S'\xd2$\xf0\x8d\r\x93\xd9?'
p1045
tp1046
Rp1047
sg963
g21
(g25
S'\x98\x99\x99\x99\x99\x99\xc9?'
p1048
tp1049
Rp1050
stp1051
a(I1491097209
(dp1052
g937
F0.01
sg938
F0.5
sg939
I00
sg940
F0.5
sg941
I1
sg942
F0.01
sg943
F2.0
sg944
I1001
sg945
I1
sg946
I5
sg947
I1
sg948
I100
sg949
F350.0
sg950
I50
sg951
I30
sg952
F0.9
sg953
F6.0
s(dp1053
g955
g21
(g25
S'\x9a\x99\x99\x99\x99\x99\xc9?'
p1054
tp1055
Rp1056
sg959
g21
(g25
S'\xd2$\xf0\x8d\r\x93\xd9?'
p1057
tp1058
Rp1059
sg963
g21
(g25
S'\x98\x99\x99\x99\x99\x99\xc9?'
p1060
tp1061
Rp1062
stp1063
a(I1491097232
(dp1064
g937
F0.01
sg938
F0.5
sg939
I00
sg940
F0.5
sg941
I1
sg942
F0.01
sg943
F5.0
sg944
I1001
sg945
I1
sg946
I5
sg947
I1
sg948
I100
sg949
F350.0
sg950
I50
sg951
I30
sg952
F0.9
sg953
F6.0
s(dp1065
g955
g21
(g25
S'\x00\x00\x00\x00\x00\x00\x00\x00'
p1066
tp1067
Rp1068
sg959
g21
(g25
S'va\x8b\x87\xbe\xff\xd8?'
p1069
tp1070
Rp1071
sg963
g21
(g25
S'\x00\x00\x00\x00\x00\x00\x00\x00'
p1072
tp1073
Rp1074
stp1075
a(I1491097252
(dp1076
g937
F0.01
sg938
F0.5
sg939
I00
sg940
F0.5
sg941
I1
sg942
F0.01
sg943
F10.0
sg944
I1001
sg945
I1
sg946
I5
sg947
I1
sg948
I100
sg949
F350.0
sg950
I50
sg951
I30
sg952
F0.9
sg953
F6.0
s(dp1077
g955
g21
(g25
S'\x9a\x99\x99\x99\x99\x99\xc9?'
p1078
tp1079
Rp1080
sg959
g21
(g25
S'(\xf1)\xfc6A\xd9?'
p1081
tp1082
Rp1083
sg963
g21
(g25
S'\x98\x99\x99\x99\x99\x99\xc9?'
p1084
tp1085
Rp1086
stp1087
a(I1491098036
(dp1088
S'learn_rate'
p1089
F0.01
sS'b'
p1090
F0.5
sS'shuffle'
p1091
I00
sS'f'
p1092
F0.5
sS'reapeat_sequence'
p1093
I1
sS'ham_dist_threshold'
p1094
F0.01
sS'eps'
p1095
I0
sS'N'
p1096
I1001
sS'nbr_patterns'
p1097
I5
sS'initial_variance'
p1098
I1
sS'theta'
p1099
F350.0
sS'test_length'
p1100
I100
sS'initial_mean'
p1101
I1
sS'nb_iter'
p1102
I50
sS'test_nb_iter'
p1103
I30
sS'successful_storage_rate'
p1104
F0.9
sS'gamma'
p1105
F6.0
s(dp1106
S'successful_storage'
p1107
g21
(g25
S'\x00\x00\x00\x00\x00\x00\x00\x00'
p1108
tp1109
Rp1110
sS'avg_dist'
p1111
g21
(g25
S'@\xae\x03\xa5JL\xdb?'
p1112
tp1113
Rp1114
sS'err'
p1115
g21
(g25
S'\x00\x00\x00\x00\x00\x00\x00\x00'
p1116
tp1117
Rp1118
stp1119
a(I1491098055
(dp1120
g1089
F0.01
sg1090
F0.5
sg1091
I00
sg1092
F0.5
sg1093
I1
sg1094
F0.01
sg1095
F0.01
sg1096
I1001
sg1097
I5
sg1098
I1
sg1099
F350.0
sg1100
I100
sg1101
I1
sg1102
I50
sg1103
I30
sg1104
F0.9
sg1105
F6.0
s(dp1121
g1107
g21
(g25
S'\x00\x00\x00\x00\x00\x00\x00\x00'
p1122
tp1123
Rp1124
sg1111
g21
(g25
S'#q\xf3\xb13\xe9\xda?'
p1125
tp1126
Rp1127
sg1115
g21
(g25
S'\x00\x00\x00\x00\x00\x00\x00\x00'
p1128
tp1129
Rp1130
stp1131
a(I1491098078
(dp1132
g1089
F0.01
sg1090
F0.5
sg1091
I00
sg1092
F0.5
sg1093
I1
sg1094
F0.01
sg1095
F0.02
sg1096
I1001
sg1097
I5
sg1098
I1
sg1099
F350.0
sg1100
I100
sg1101
I1
sg1102
I50
sg1103
I30
sg1104
F0.9
sg1105
F6.0
s(dp1133
g1107
g21
(g25
S'\x00\x00\x00\x00\x00\x00\x00\x00'
p1134
tp1135
Rp1136
sg1111
g21
(g25
S'\xdaL\xa8\xbcv\xe9\xda?'
p1137
tp1138
Rp1139
sg1115
g21
(g25
S'\x00\x00\x00\x00\x00\x00\x00\x00'
p1140
tp1141
Rp1142
stp1143
a(I1491098096
(dp1144
g1089
F0.01
sg1090
F0.5
sg1091
I00
sg1092
F0.5
sg1093
I1
sg1094
F0.01
sg1095
F0.05
sg1096
I1001
sg1097
I5
sg1098
I1
sg1099
F350.0
sg1100
I100
sg1101
I1
sg1102
I50
sg1103
I30
sg1104
F0.9
sg1105
F6.0
s(dp1145
g1107
g21
(g25
S'\x00\x00\x00\x00\x00\x00\x00\x00'
p1146
tp1147
Rp1148
sg1111
g21
(g25
S'"\x0e\'\xa3\x80.\xdb?'
p1149
tp1150
Rp1151
sg1115
g21
(g25
S'\x00\x00\x00\x00\x00\x00\x00\x00'
p1152
tp1153
Rp1154
stp1155
a(I1491098119
(dp1156
g1089
F0.01
sg1090
F0.5
sg1091
I00
sg1092
F0.5
sg1093
I1
sg1094
F0.01
sg1095
F0.1
sg1096
I1001
sg1097
I5
sg1098
I1
sg1099
F350.0
sg1100
I100
sg1101
I1
sg1102
I50
sg1103
I30
sg1104
F0.9
sg1105
F6.0
s(dp1157
g1107
g21
(g25
S'\x00\x00\x00\x00\x00\x00\x00\x00'
p1158
tp1159
Rp1160
sg1111
g21
(g25
S'\r\xa9\x19\x1a/\xea\xda?'
p1161
tp1162
Rp1163
sg1115
g21
(g25
S'\x00\x00\x00\x00\x00\x00\x00\x00'
p1164
tp1165
Rp1166
stp1167
a(I1491098143
(dp1168
g1089
F0.01
sg1090
F0.5
sg1091
I00
sg1092
F0.5
sg1093
I1
sg1094
F0.01
sg1095
F0.2
sg1096
I1001
sg1097
I5
sg1098
I1
sg1099
F350.0
sg1100
I100
sg1101
I1
sg1102
I50
sg1103
I30
sg1104
F0.9
sg1105
F6.0
s(dp1169
g1107
g21
(g25
S'\x00\x00\x00\x00\x00\x00\x00\x00'
p1170
tp1171
Rp1172
sg1111
g21
(g25
S'\xe0?\x8f\x80\x1c\x91\xda?'
p1173
tp1174
Rp1175
sg1115
g21
(g25
S'\x00\x00\x00\x00\x00\x00\x00\x00'
p1176
tp1177
Rp1178
stp1179
a(I1491098168
(dp1180
g1089
F0.01
sg1090
F0.5
sg1091
I00
sg1092
F0.5
sg1093
I1
sg1094
F0.01
sg1095
F0.5
sg1096
I1001
sg1097
I5
sg1098
I1
sg1099
F350.0
sg1100
I100
sg1101
I1
sg1102
I50
sg1103
I30
sg1104
F0.9
sg1105
F6.0
s(dp1181
g1107
g21
(g25
S'\x9a\x99\x99\x99\x99\x99\xc9?'
p1182
tp1183
Rp1184
sg1111
g21
(g25
S'\x18\x0f/\xfb\x89C\xd9?'
p1185
tp1186
Rp1187
sg1115
g21
(g25
S'\x98\x99\x99\x99\x99\x99\xc9?'
p1188
tp1189
Rp1190
stp1191
a(I1491098194
(dp1192
g1089
F0.01
sg1090
F0.5
sg1091
I00
sg1092
F0.5
sg1093
I1
sg1094
F0.01
sg1095
F1.0
sg1096
I1001
sg1097
I5
sg1098
I1
sg1099
F350.0
sg1100
I100
sg1101
I1
sg1102
I50
sg1103
I30
sg1104
F0.9
sg1105
F6.0
s(dp1193
g1107
g21
(g25
S'\x9a\x99\x99\x99\x99\x99\xc9?'
p1194
tp1195
Rp1196
sg1111
g21
(g25
S'[\x0eC\xa5%\xa0\xd9?'
p1197
tp1198
Rp1199
sg1115
g21
(g25
S'\x98\x99\x99\x99\x99\x99\xc9?'
p1200
tp1201
Rp1202
stp1203
a(I1491098218
(dp1204
g1089
F0.01
sg1090
F0.5
sg1091
I00
sg1092
F0.5
sg1093
I1
sg1094
F0.01
sg1095
F2.0
sg1096
I1001
sg1097
I5
sg1098
I1
sg1099
F350.0
sg1100
I100
sg1101
I1
sg1102
I50
sg1103
I30
sg1104
F0.9
sg1105
F6.0
s(dp1205
g1107
g21
(g25
S'\x9a\x99\x99\x99\x99\x99\xc9?'
p1206
tp1207
Rp1208
sg1111
g21
(g25
S'[\x0eC\xa5%\xa0\xd9?'
p1209
tp1210
Rp1211
sg1115
g21
(g25
S'\x98\x99\x99\x99\x99\x99\xc9?'
p1212
tp1213
Rp1214
stp1215
a(I1491098244
(dp1216
g1089
F0.01
sg1090
F0.5
sg1091
I00
sg1092
F0.5
sg1093
I1
sg1094
F0.01
sg1095
F5.0
sg1096
I1001
sg1097
I5
sg1098
I1
sg1099
F350.0
sg1100
I100
sg1101
I1
sg1102
I50
sg1103
I30
sg1104
F0.9
sg1105
F6.0
s(dp1217
g1107
g21
(g25
S'\x00\x00\x00\x00\x00\x00\x00\x00'
p1218
tp1219
Rp1220
sg1111
g21
(g25
S'a\x05\xb3\xa4\x1c\x10\xd9?'
p1221
tp1222
Rp1223
sg1115
g21
(g25
S'\x00\x00\x00\x00\x00\x00\x00\x00'
p1224
tp1225
Rp1226
stp1227
a(I1491098264
(dp1228
g1089
F0.01
sg1090
F0.5
sg1091
I00
sg1092
F0.5
sg1093
I1
sg1094
F0.01
sg1095
F10.0
sg1096
I1001
sg1097
I5
sg1098
I1
sg1099
F350.0
sg1100
I100
sg1101
I1
sg1102
I50
sg1103
I30
sg1104
F0.9
sg1105
F6.0
s(dp1229
g1107
g21
(g25
S'\x9a\x99\x99\x99\x99\x99\xc9?'
p1230
tp1231
Rp1232
sg1111
g21
(g25
S'\xf0w\xf3\x08\xd5g\xda?'
p1233
tp1234
Rp1235
sg1115
g21
(g25
S'\x98\x99\x99\x99\x99\x99\xc9?'
p1236
tp1237
Rp1238
stp1239
a(I1491133631
(dp1240
S'learn_rate'
p1241
F0.01
sS'b'
p1242
F0.5
sS'shuffle'
p1243
I00
sS'f'
p1244
F0.5
sS'nbr_patterns'
p1245
I50
sS'reapeat_sequence'
p1246
I10
sS'ham_dist_threshold'
p1247
F0.01
sS'eps'
p1248
I0
sS'N'
p1249
I1001
sS'initial_mean'
p1250
I1
sS'initial_variance'
p1251
I1
sS'test_length'
p1252
I100
sS'theta'
p1253
F350.0
sS'nb_iter'
p1254
I5
sS'test_nb_iter'
p1255
I30
sS'successful_storage_rate'
p1256
F0.9
sS'gamma'
p1257
F6.0
s(dp1258
S'successful_storage'
p1259
g21
(g25
S'\x00\x00\x00\x00\x00\x00\x00\x00'
p1260
tp1261
Rp1262
sS'avg_dist'
p1263
g21
(g25
S'\nM\x9a\x00\xd7_\xde?'
p1264
tp1265
Rp1266
sS'err'
p1267
g21
(g25
S'\x00\x00\x00\x00\x00\x00\x00\x00'
p1268
tp1269
Rp1270
stp1271
a(I1491133803
(dp1272
g1241
F0.01
sg1242
F0.5
sg1243
I00
sg1244
F0.5
sg1245
I50
sg1246
I10
sg1247
F0.01
sg1248
F0.01
sg1249
I1001
sg1250
I1
sg1251
I1
sg1252
I100
sg1253
F350.0
sg1254
I5
sg1255
I30
sg1256
F0.9
sg1257
F6.0
s(dp1273
g1259
g21
(g25
S'\x00\x00\x00\x00\x00\x00\x00\x00'
p1274
tp1275
Rp1276
sg1263
g21
(g25
S'\xee\xdf\xe4A}\x12\xdf?'
p1277
tp1278
Rp1279
sg1267
g21
(g25
S'\x00\x00\x00\x00\x00\x00\x00\x00'
p1280
tp1281
Rp1282
stp1283
a(I1491133990
(dp1284
g1241
F0.01
sg1242
F0.5
sg1243
I00
sg1244
F0.5
sg1245
I50
sg1246
I10
sg1247
F0.01
sg1248
F0.02
sg1249
I1001
sg1250
I1
sg1251
I1
sg1252
I100
sg1253
F350.0
sg1254
I5
sg1255
I30
sg1256
F0.9
sg1257
F6.0
s(dp1285
g1259
g21
(g25
S'\x00\x00\x00\x00\x00\x00\x00\x00'
p1286
tp1287
Rp1288
sg1263
g21
(g25
S';D\x02%\xd4\xe7\xde?'
p1289
tp1290
Rp1291
sg1267
g21
(g25
S'\x00\x00\x00\x00\x00\x00\x00\x00'
p1292
tp1293
Rp1294
stp1295
a(I1491134206
(dp1296
g1241
F0.01
sg1242
F0.5
sg1243
I00
sg1244
F0.5
sg1245
I50
sg1246
I10
sg1247
F0.01
sg1248
F0.05
sg1249
I1001
sg1250
I1
sg1251
I1
sg1252
I100
sg1253
F350.0
sg1254
I5
sg1255
I30
sg1256
F0.9
sg1257
F6.0
s(dp1297
g1259
g21
(g25
S'\x00\x00\x00\x00\x00\x00\x00\x00'
p1298
tp1299
Rp1300
sg1263
g21
(g25
S'\xf3l\xbf\xc1\x1e\x9b\xde?'
p1301
tp1302
Rp1303
sg1267
g21
(g25
S'\x00\x00\x00\x00\x00\x00\x00\x00'
p1304
tp1305
Rp1306
stp1307
a(I1491134394
(dp1308
g1241
F0.01
sg1242
F0.5
sg1243
I00
sg1244
F0.5
sg1245
I50
sg1246
I10
sg1247
F0.01
sg1248
F0.1
sg1249
I1001
sg1250
I1
sg1251
I1
sg1252
I100
sg1253
F350.0
sg1254
I5
sg1255
I30
sg1256
F0.9
sg1257
F6.0
s(dp1309
g1259
g21
(g25
S'\x00\x00\x00\x00\x00\x00\x00\x00'
p1310
tp1311
Rp1312
sg1263
g21
(g25
S'\x03\rPP\xd0\xc9\xde?'
p1313
tp1314
Rp1315
sg1267
g21
(g25
S'\x00\x00\x00\x00\x00\x00\x00\x00'
p1316
tp1317
Rp1318
stp1319
a(I1491134604
(dp1320
g1241
F0.01
sg1242
F0.5
sg1243
I00
sg1244
F0.5
sg1245
I50
sg1246
I10
sg1247
F0.01
sg1248
F0.2
sg1249
I1001
sg1250
I1
sg1251
I1
sg1252
I100
sg1253
F350.0
sg1254
I5
sg1255
I30
sg1256
F0.9
sg1257
F6.0
s(dp1321
g1259
g21
(g25
S'\x00\x00\x00\x00\x00\x00\x00\x00'
p1322
tp1323
Rp1324
sg1263
g21
(g25
S'\xed\xefX\xf3p\xee\xde?'
p1325
tp1326
Rp1327
sg1267
g21
(g25
S'\x00\x00\x00\x00\x00\x00\x00\x00'
p1328
tp1329
Rp1330
stp1331
a(I1491134812
(dp1332
g1241
F0.01
sg1242
F0.5
sg1243
I00
sg1244
F0.5
sg1245
I50
sg1246
I10
sg1247
F0.01
sg1248
F0.5
sg1249
I1001
sg1250
I1
sg1251
I1
sg1252
I100
sg1253
F350.0
sg1254
I5
sg1255
I30
sg1256
F0.9
sg1257
F6.0
s(dp1333
g1259
g21
(g25
S'{\x14\xaeG\xe1z\xb4?'
p1334
tp1335
Rp1336
sg1263
g21
(g25
S')*\x03\xdaCM\xd8?'
p1337
tp1338
Rp1339
sg1267
g21
(g25
S'\x00\xe7\x8c(\xed\r\xce?'
p1340
tp1341
Rp1342
stp1343
a(I1491135014
(dp1344
g1241
F0.01
sg1242
F0.5
sg1243
I00
sg1244
F0.5
sg1245
I50
sg1246
I10
sg1247
F0.01
sg1248
F1.0
sg1249
I1001
sg1250
I1
sg1251
I1
sg1252
I100
sg1253
F350.0
sg1254
I5
sg1255
I30
sg1256
F0.9
sg1257
F6.0
s(dp1345
g1259
g21
(g25
S'\\\x8f\xc2\xf5(\\\xef?'
p1346
tp1347
Rp1348
sg1263
g21
(g25
S'\xd2\x94\xf8!\xd4\xccV?'
p1349
tp1350
Rp1351
sg1267
g21
(g25
S'\\\x8f\xc2\xf5(\\\xef?'
p1352
tp1353
Rp1354
stp1355
a(I1491135224
(dp1356
g1241
F0.01
sg1242
F0.5
sg1243
I00
sg1244
F0.5
sg1245
I50
sg1246
I10
sg1247
F0.01
sg1248
F2.0
sg1249
I1001
sg1250
I1
sg1251
I1
sg1252
I100
sg1253
F350.0
sg1254
I5
sg1255
I30
sg1256
F0.9
sg1257
F6.0
s(dp1357
g1259
g21
(g25
S'\x00\x00\x00\x00\x00\x00\xf0?'
p1358
tp1359
Rp1360
sg1263
g21
(g25
S'\xdf\xd4\x1e\x8c\xf7\x98<?'
p1361
tp1362
Rp1363
sg1267
g21
(g25
S'\x00\x00\x00\x00\x00\x00\xf0?'
p1364
tp1365
Rp1366
stp1367
a(I1491135441
(dp1368
g1241
F0.01
sg1242
F0.5
sg1243
I00
sg1244
F0.5
sg1245
I50
sg1246
I10
sg1247
F0.01
sg1248
F5.0
sg1249
I1001
sg1250
I1
sg1251
I1
sg1252
I100
sg1253
F350.0
sg1254
I5
sg1255
I30
sg1256
F0.9
sg1257
F6.0
s(dp1369
g1259
g21
(g25
S'\x00\x00\x00\x00\x00\x00\x00\x00'
p1370
tp1371
Rp1372
sg1263
g21
(g25
S'o\x8fD\xe9\xd1\x89\xbd?'
p1373
tp1374
Rp1375
sg1267
g21
(g25
S'\x00\x00\x00\x00\x00\x00\x00\x00'
p1376
tp1377
Rp1378
stp1379
a(I1491135639
(dp1380
g1241
F0.01
sg1242
F0.5
sg1243
I00
sg1244
F0.5
sg1245
I50
sg1246
I10
sg1247
F0.01
sg1248
F10.0
sg1249
I1001
sg1250
I1
sg1251
I1
sg1252
I100
sg1253
F350.0
sg1254
I5
sg1255
I30
sg1256
F0.9
sg1257
F6.0
s(dp1381
g1259
g21
(g25
S'\x00\x00\x00\x00\x00\x00\x00\x00'
p1382
tp1383
Rp1384
sg1263
g21
(g25
S'Zl\x9f\xaa\xb0\xae\xdc?'
p1385
tp1386
Rp1387
sg1267
g21
(g25
S'\x00\x00\x00\x00\x00\x00\x00\x00'
p1388
tp1389
Rp1390
stp1391
a(I1491136232
(dp1392
S'learn_rate'
p1393
F0.001
sS'b'
p1394
F0.5
sS'shuffle'
p1395
I00
sS'f'
p1396
F0.5
sS'nbr_patterns'
p1397
I50
sS'reapeat_sequence'
p1398
I10
sS'ham_dist_threshold'
p1399
F0.01
sS'eps'
p1400
F0.2
sS'N'
p1401
I1001
sS'initial_mean'
p1402
I1
sS'initial_variance'
p1403
I1
sS'test_length'
p1404
I100
sS'theta'
p1405
F350.0
sS'nb_iter'
p1406
I5
sS'test_nb_iter'
p1407
I30
sS'successful_storage_rate'
p1408
F0.9
sS'gamma'
p1409
F6.0
s(dp1410
S'successful_storage'
p1411
g21
(g25
S'\x00\x00\x00\x00\x00\x00\x00\x00'
p1412
tp1413
Rp1414
sS'avg_dist'
p1415
g21
(g25
S'\x0fq\x99T\x04Q\xdf?'
p1416
tp1417
Rp1418
sS'err'
p1419
g21
(g25
S'\x00\x00\x00\x00\x00\x00\x00\x00'
p1420
tp1421
Rp1422
stp1423
a(I1491136482
(dp1424
g1393
F0.001
sg1394
F0.5
sg1395
I00
sg1396
F0.5
sg1397
I50
sg1398
I10
sg1399
F0.01
sg1400
F0.5
sg1401
I1001
sg1402
I1
sg1403
I1
sg1404
I100
sg1405
F350.0
sg1406
I5
sg1407
I30
sg1408
F0.9
sg1409
F6.0
s(dp1425
g1411
g21
(g25
S'\x00\x00\x00\x00\x00\x00\x00\x00'
p1426
tp1427
Rp1428
sg1415
g21
(g25
S'\xf3b\xc9R\x02"\xdf?'
p1429
tp1430
Rp1431
sg1419
g21
(g25
S'\x00\x00\x00\x00\x00\x00\x00\x00'
p1432
tp1433
Rp1434
stp1435
a(I1491136714
(dp1436
g1393
F0.001
sg1394
F0.5
sg1395
I00
sg1396
F0.5
sg1397
I50
sg1398
I10
sg1399
F0.01
sg1400
F1.0
sg1401
I1001
sg1402
I1
sg1403
I1
sg1404
I100
sg1405
F350.0
sg1406
I5
sg1407
I30
sg1408
F0.9
sg1409
F6.0
s(dp1437
g1411
g21
(g25
S'\x00\x00\x00\x00\x00\x00\x00\x00'
p1438
tp1439
Rp1440
sg1415
g21
(g25
S'z\x02m%\xe1\x99\xde?'
p1441
tp1442
Rp1443
sg1419
g21
(g25
S'\x00\x00\x00\x00\x00\x00\x00\x00'
p1444
tp1445
Rp1446
stp1447
a(I1491136922
(dp1448
g1393
F0.001
sg1394
F0.5
sg1395
I00
sg1396
F0.5
sg1397
I50
sg1398
I10
sg1399
F0.01
sg1400
F2.0
sg1401
I1001
sg1402
I1
sg1403
I1
sg1404
I100
sg1405
F350.0
sg1406
I5
sg1407
I30
sg1408
F0.9
sg1409
F6.0
s(dp1449
g1411
g21
(g25
S'\x00\x00\x00\x00\x00\x00\x00\x00'
p1450
tp1451
Rp1452
sg1415
g21
(g25
S'.\xcc\xa5@\xd3\x0b\xdd?'
p1453
tp1454
Rp1455
sg1419
g21
(g25
S'\x00\x00\x00\x00\x00\x00\x00\x00'
p1456
tp1457
Rp1458
stp1459
a(I1491137149
(dp1460
g1393
F0.001
sg1394
F0.5
sg1395
I00
sg1396
F0.5
sg1397
I50
sg1398
I10
sg1399
F0.01
sg1400
F5.0
sg1401
I1001
sg1402
I1
sg1403
I1
sg1404
I100
sg1405
F350.0
sg1406
I5
sg1407
I30
sg1408
F0.9
sg1409
F6.0
s(dp1461
g1411
g21
(g25
S'\x00\x00\x00\x00\x00\x00\x00\x00'
p1462
tp1463
Rp1464
sg1415
g21
(g25
S'\xeaM\x824\x1cW\xdc?'
p1465
tp1466
Rp1467
sg1419
g21
(g25
S'\x00\x00\x00\x00\x00\x00\x00\x00'
p1468
tp1469
Rp1470
stp1471
a(I1491137533
(dp1472
S'learn_rate'
p1473
F0.005
sS'b'
p1474
F0.5
sS'shuffle'
p1475
I00
sS'f'
p1476
F0.5
sS'reapeat_sequence'
p1477
I10
sS'ham_dist_threshold'
p1478
F0.01
sS'eps'
p1479
F0.2
sS'N'
p1480
I1001
sS'initial_mean'
p1481
I1
sS'initial_variance'
p1482
I1
sS'theta'
p1483
F350.0
sS'test_length'
p1484
I100
sS'nbr_patterns'
p1485
I50
sS'nb_iter'
p1486
I5
sS'test_nb_iter'
p1487
I30
sS'successful_storage_rate'
p1488
F0.9
sS'gamma'
p1489
F3.0
s(dp1490
S'successful_storage'
p1491
g21
(g25
S'\x00\x00\x00\x00\x00\x00\x00\x00'
p1492
tp1493
Rp1494
sS'avg_dist'
p1495
g21
(g25
S'\xf1\xc1\xc1F1X\xdf?'
p1496
tp1497
Rp1498
sS'err'
p1499
g21
(g25
S'\x00\x00\x00\x00\x00\x00\x00\x00'
p1500
tp1501
Rp1502
stp1503
a(I1491137779
(dp1504
g1473
F0.005
sg1474
F0.5
sg1475
I00
sg1476
F0.5
sg1477
I10
sg1478
F0.01
sg1479
F0.5
sg1480
I1001
sg1481
I1
sg1482
I1
sg1483
F350.0
sg1484
I100
sg1485
I50
sg1486
I5
sg1487
I30
sg1488
F0.9
sg1489
F3.0
s(dp1505
g1491
g21
(g25
S')\\\x8f\xc2\xf5(\xcc?'
p1506
tp1507
Rp1508
sg1495
g21
(g25
S'J6\x02\xb2^;\xd5?'
p1509
tp1510
Rp1511
sg1499
g21
(g25
S'\xac>W[\xb1\xbf\xd4?'
p1512
tp1513
Rp1514
stp1515
a(I1491138036
(dp1516
g1473
F0.005
sg1474
F0.5
sg1475
I00
sg1476
F0.5
sg1477
I10
sg1478
F0.01
sg1479
F1.0
sg1480
I1001
sg1481
I1
sg1482
I1
sg1483
F350.0
sg1484
I100
sg1485
I50
sg1486
I5
sg1487
I30
sg1488
F0.9
sg1489
F3.0
s(dp1517
g1491
g21
(g25
S'\\\x8f\xc2\xf5(\\\xef?'
p1518
tp1519
Rp1520
sg1495
g21
(g25
S'\xa8@X$\x83\x9dh?'
p1521
tp1522
Rp1523
sg1499
g21
(g25
S'\\\x8f\xc2\xf5(\\\xef?'
p1524
tp1525
Rp1526
stp1527
a(I1491138338
(dp1528
g1473
F0.005
sg1474
F0.5
sg1475
I00
sg1476
F0.5
sg1477
I10
sg1478
F0.01
sg1479
F2.0
sg1480
I1001
sg1481
I1
sg1482
I1
sg1483
F350.0
sg1484
I100
sg1485
I50
sg1486
I5
sg1487
I30
sg1488
F0.9
sg1489
F3.0
s(dp1529
g1491
g21
(g25
S'\x00\x00\x00\x00\x00\x00\x00\x00'
p1530
tp1531
Rp1532
sg1495
g21
(g25
S'\x8f\xd7\x9c\xee[\x04\xab?'
p1533
tp1534
Rp1535
sg1499
g21
(g25
S'\x00\x00\x00\x00\x00\x00\x00\x00'
p1536
tp1537
Rp1538
stp1539
a(I1491138813
(dp1540
g1473
F0.005
sg1474
F0.5
sg1475
I00
sg1476
F0.5
sg1477
I10
sg1478
F0.01
sg1479
F5.0
sg1480
I1001
sg1481
I1
sg1482
I1
sg1483
F350.0
sg1484
I100
sg1485
I50
sg1486
I5
sg1487
I30
sg1488
F0.9
sg1489
F3.0
s(dp1541
g1491
g21
(g25
S'\x00\x00\x00\x00\x00\x00\x00\x00'
p1542
tp1543
Rp1544
sg1495
g21
(g25
S'i\x11\xda{\xf5\x03\xdd?'
p1545
tp1546
Rp1547
sg1499
g21
(g25
S'\x00\x00\x00\x00\x00\x00\x00\x00'
p1548
tp1549
Rp1550
stp1551
a(I1491139687
(dp1552
g1473
F0.005
sg1474
F0.5
sg1475
I00
sg1476
F0.5
sg1477
I10
sg1478
F0.01
sg1479
F0.2
sg1480
I1001
sg1481
I1
sg1482
I1
sg1483
F350.0
sg1484
I100
sg1485
I50
sg1486
I5
sg1487
I30
sg1488
F0.9
sg1489
F6.0
s(dp1553
g1491
g21
(g25
S'\x00\x00\x00\x00\x00\x00\x00\x00'
p1554
tp1555
Rp1556
sg1495
g21
(g25
S'\xa6\xb2\xc1(5_\xdf?'
p1557
tp1558
Rp1559
sg1499
g21
(g25
S'\x00\x00\x00\x00\x00\x00\x00\x00'
p1560
tp1561
Rp1562
stp1563
a(I1491139966
(dp1564
g1473
F0.005
sg1474
F0.5
sg1475
I00
sg1476
F0.5
sg1477
I10
sg1478
F0.01
sg1479
F0.5
sg1480
I1001
sg1481
I1
sg1482
I1
sg1483
F350.0
sg1484
I100
sg1485
I50
sg1486
I5
sg1487
I30
sg1488
F0.9
sg1489
F6.0
s(dp1565
g1491
g21
(g25
S'\x9a\x99\x99\x99\x99\x99\xb9?'
p1566
tp1567
Rp1568
sg1495
g21
(g25
S'|\xf1^\xad\x14\xfc\xd9?'
p1569
tp1570
Rp1571
sg1499
g21
(g25
S'\xf0\xf4JY\x868\xc6?'
p1572
tp1573
Rp1574
stp1575
a(I1491140212
(dp1576
g1473
F0.005
sg1474
F0.5
sg1475
I00
sg1476
F0.5
sg1477
I10
sg1478
F0.01
sg1479
F1.0
sg1480
I1001
sg1481
I1
sg1482
I1
sg1483
F350.0
sg1484
I100
sg1485
I50
sg1486
I5
sg1487
I30
sg1488
F0.9
sg1489
F6.0
s(dp1577
g1491
g21
(g25
S'\xb8\x1e\x85\xebQ\xb8\xee?'
p1578
tp1579
Rp1580
sg1495
g21
(g25
S'R@\x92\x98\xbbhY?'
p1581
tp1582
Rp1583
sg1499
g21
(g25
S'\xd4+e\x19\xe2X\xef?'
p1584
tp1585
Rp1586
stp1587
a(I1491140439
(dp1588
g1473
F0.005
sg1474
F0.5
sg1475
I00
sg1476
F0.5
sg1477
I10
sg1478
F0.01
sg1479
F2.0
sg1480
I1001
sg1481
I1
sg1482
I1
sg1483
F350.0
sg1484
I100
sg1485
I50
sg1486
I5
sg1487
I30
sg1488
F0.9
sg1489
F6.0
s(dp1589
g1491
g21
(g25
S'\x00\x00\x00\x00\x00\x00\xf0?'
p1590
tp1591
Rp1592
sg1495
g21
(g25
S'e\xa4\n\xa8\xf4YR?'
p1593
tp1594
Rp1595
sg1499
g21
(g25
S'\x00\x00\x00\x00\x00\x00\xf0?'
p1596
tp1597
Rp1598
stp1599
a(I1491140658
(dp1600
g1473
F0.005
sg1474
F0.5
sg1475
I00
sg1476
F0.5
sg1477
I10
sg1478
F0.01
sg1479
F5.0
sg1480
I1001
sg1481
I1
sg1482
I1
sg1483
F350.0
sg1484
I100
sg1485
I50
sg1486
I5
sg1487
I30
sg1488
F0.9
sg1489
F6.0
s(dp1601
g1491
g21
(g25
S'\x00\x00\x00\x00\x00\x00\x00\x00'
p1602
tp1603
Rp1604
sg1495
g21
(g25
S'\xd3\x9d\xbcz\xa25\xdd?'
p1605
tp1606
Rp1607
sg1499
g21
(g25
S'\x00\x00\x00\x00\x00\x00\x00\x00'
p1608
tp1609
Rp1610
stp1611
a(I1491140885
(dp1612
g1473
F0.005
sg1474
F0.5
sg1475
I00
sg1476
F0.5
sg1477
I10
sg1478
F0.01
sg1479
F0.2
sg1480
I1001
sg1481
I1
sg1482
I1
sg1483
F350.0
sg1484
I100
sg1485
I50
sg1486
I5
sg1487
I30
sg1488
F0.9
sg1489
F12.0
s(dp1613
g1491
g21
(g25
S'\x00\x00\x00\x00\x00\x00\x00\x00'
p1614
tp1615
Rp1616
sg1495
g21
(g25
S'&~\x1c\x00pP\xdf?'
p1617
tp1618
Rp1619
sg1499
g21
(g25
S'\x00\x00\x00\x00\x00\x00\x00\x00'
p1620
tp1621
Rp1622
stp1623
a(I1491141120
(dp1624
g1473
F0.005
sg1474
F0.5
sg1475
I00
sg1476
F0.5
sg1477
I10
sg1478
F0.01
sg1479
F0.5
sg1480
I1001
sg1481
I1
sg1482
I1
sg1483
F350.0
sg1484
I100
sg1485
I50
sg1486
I5
sg1487
I30
sg1488
F0.9
sg1489
F12.0
s(dp1625
g1491
g21
(g25
S'{\x14\xaeG\xe1z\x94?'
p1626
tp1627
Rp1628
sg1495
g21
(g25
S'dZ\xcb\x1c\xb7}\xdb?'
p1629
tp1630
Rp1631
sg1499
g21
(g25
S'\xf8~j\xbct\x93\xb8?'
p1632
tp1633
Rp1634
stp1635
a(I1491141466
(dp1636
g1473
F0.005
sg1474
F0.5
sg1475
I00
sg1476
F0.5
sg1477
I10
sg1478
F0.01
sg1479
F1.0
sg1480
I1001
sg1481
I1
sg1482
I1
sg1483
F350.0
sg1484
I100
sg1485
I50
sg1486
I5
sg1487
I30
sg1488
F0.9
sg1489
F12.0
s(dp1637
g1491
g21
(g25
S'{\x14\xaeG\xe1z\xe4?'
p1638
tp1639
Rp1640
sg1495
g21
(g25
S'\xed\x143\xbcm\xf0\xb5?'
p1641
tp1642
Rp1643
sg1499
g21
(g25
S'\x1b/\xdd$\x06\x81\xe5?'
p1644
tp1645
Rp1646
stp1647
a(I1491141721
(dp1648
g1473
F0.005
sg1474
F0.5
sg1475
I00
sg1476
F0.5
sg1477
I10
sg1478
F0.01
sg1479
F2.0
sg1480
I1001
sg1481
I1
sg1482
I1
sg1483
F350.0
sg1484
I100
sg1485
I50
sg1486
I5
sg1487
I30
sg1488
F0.9
sg1489
F12.0
s(dp1649
g1491
g21
(g25
S'\x00\x00\x00\x00\x00\x00\xf0?'
p1650
tp1651
Rp1652
sg1495
g21
(g25
S'\x14\xd5\x93\xc0*\xe0Z?'
p1653
tp1654
Rp1655
sg1499
g21
(g25
S'\x00\x00\x00\x00\x00\x00\xf0?'
p1656
tp1657
Rp1658
stp1659
a(I1491141943
(dp1660
g1473
F0.005
sg1474
F0.5
sg1475
I00
sg1476
F0.5
sg1477
I10
sg1478
F0.01
sg1479
F5.0
sg1480
I1001
sg1481
I1
sg1482
I1
sg1483
F350.0
sg1484
I100
sg1485
I50
sg1486
I5
sg1487
I30
sg1488
F0.9
sg1489
F12.0
s(dp1661
g1491
g21
(g25
S'\x00\x00\x00\x00\x00\x00\x00\x00'
p1662
tp1663
Rp1664
sg1495
g21
(g25
S'mDJv\xcd*\xdd?'
p1665
tp1666
Rp1667
sg1499
g21
(g25
S'\x00\x00\x00\x00\x00\x00\x00\x00'
p1668
tp1669
Rp1670
stp1671
a(I1491147423
(dp1672
S'learn_rate'
p1673
F0.01
sS'b'
p1674
F0.1
sS'shuffle'
p1675
I00
sS'f'
p1676
F0.5
sS'reapeat_sequence'
p1677
I1
sS'ham_dist_threshold'
p1678
F0.01
sS'eps'
p1679
F1.2
sS'N'
p1680
I1001
sS'nbr_patterns'
p1681
I5
sS'initial_variance'
p1682
I1
sS'theta'
p1683
F350.0
sS'test_length'
p1684
I100
sS'initial_mean'
p1685
I1
sS'nb_iter'
p1686
I50
sS'test_nb_iter'
p1687
I30
sS'successful_storage_rate'
p1688
F0.9
sS'gamma'
p1689
F6.0
s(dp1690
S'successful_storage'
p1691
g21
(g25
S'\x9a\x99\x99\x99\x99\x99\xc9?'
p1692
tp1693
Rp1694
sS'avg_dist'
p1695
g21
(g25
S'6\xfa\xb9\xfc?\xd1\xd9?'
p1696
tp1697
Rp1698
sS'err'
p1699
g21
(g25
S'\x98\x99\x99\x99\x99\x99\xc9?'
p1700
tp1701
Rp1702
stp1703
a(I1491149408
(dp1704
S'learn_rate'
p1705
F0.01
sS'b'
p1706
F0.1
sS'shuffle'
p1707
I00
sS'f'
p1708
F0.5
sS'nbr_patterns'
p1709
I5
sS'reapeat_sequence'
p1710
I1
sS'ham_dist_threshold'
p1711
F0.01
sS'eps'
p1712
F1.2
sS'N'
p1713
I1001
sS'initial_mean'
p1714
I1
sS'initial_variance'
p1715
I1
sS'test_length'
p1716
I100
sS'theta'
p1717
F350.0
sS'nb_iter'
p1718
I50
sS'test_nb_iter'
p1719
I30
sS'successful_storage_rate'
p1720
F0.9
sS'gamma'
p1721
F6.0
s(dp1722
S'successful_storage'
p1723
g21
(g25
S'\x9a\x99\x99\x99\x99\x99\xc9?'
p1724
tp1725
Rp1726
sS'avg_dist'
p1727
g21
(g25
S'*\x83\xec\xb0\xb1\xa6\xd9?'
p1728
tp1729
Rp1730
sS'err'
p1731
g21
(g25
S'\x98\x99\x99\x99\x99\x99\xc9?'
p1732
tp1733
Rp1734
stp1735
a(I1491149514
(dp1736
S'learn_rate'
p1737
F0.01
sS'b'
p1738
F0.1
sS'shuffle'
p1739
I00
sS'f'
p1740
F0.5
sS'reapeat_sequence'
p1741
I1
sS'ham_dist_threshold'
p1742
F0.01
sS'eps'
p1743
F1.2
sS'N'
p1744
I1001
sS'initial_mean'
p1745
I1
sS'initial_variance'
p1746
I1
sS'theta'
p1747
F350.0
sS'test_length'
p1748
I100
sS'nbr_patterns'
p1749
I5
sS'nb_iter'
p1750
I50
sS'test_nb_iter'
p1751
I30
sS'successful_storage_rate'
p1752
F0.9
sS'gamma'
p1753
F6.0
s(dp1754
S'successful_storage'
p1755
g21
(g25
S'\x9a\x99\x99\x99\x99\x99\xc9?'
p1756
tp1757
Rp1758
sS'avg_dist'
p1759
g21
(g25
S'\xb6c\xaf\xc7\xc0#\xd9?'
p1760
tp1761
Rp1762
sS'err'
p1763
g21
(g25
S'\x98\x99\x99\x99\x99\x99\xc9?'
p1764
tp1765
Rp1766
stp1767
a(I1491149842
(dp1768
S'learn_rate'
p1769
F0.01
sS'b'
p1770
F0.1
sS'shuffle'
p1771
I00
sS'f'
p1772
F0.5
sS'reapeat_sequence'
p1773
I1
sS'ham_dist_threshold'
p1774
F0.01
sS'eps'
p1775
F1.2
sS'N'
p1776
I1001
sS'initial_mean'
p1777
I1
sS'nbr_patterns'
p1778
I5
sS'initial_variance'
p1779
I1
sS'test_length'
p1780
I100
sS'theta'
p1781
F350.0
sS'nb_iter'
p1782
I50
sS'test_nb_iter'
p1783
I30
sS'successful_storage_rate'
p1784
F0.9
sS'gamma'
p1785
F6.0
s(dp1786
S'successful_storage'
p1787
g21
(g25
S'\x9a\x99\x99\x99\x99\x99\xc9?'
p1788
tp1789
Rp1790
sS'avg_dist'
p1791
g21
(g25
S'u\xd8X\xd3L*\xd9?'
p1792
tp1793
Rp1794
sS'err'
p1795
g21
(g25
S'\x98\x99\x99\x99\x99\x99\xc9?'
p1796
tp1797
Rp1798
stp1799
a(I1491150142
(dp1800
S'learn_rate'
p1801
F0.01
sS'b'
p1802
F0.1
sS'shuffle'
p1803
I00
sS'f'
p1804
F0.5
sS'reapeat_sequence'
p1805
I1
sS'ham_dist_threshold'
p1806
F0.01
sS'eps'
p1807
F1.2
sS'N'
p1808
I1001
sS'initial_mean'
p1809
I1
sS'initial_variance'
p1810
I1
sS'theta'
p1811
F350.0
sS'test_length'
p1812
I100
sS'nbr_patterns'
p1813
I5
sS'nb_iter'
p1814
I50
sS'test_nb_iter'
p1815
I30
sS'successful_storage_rate'
p1816
F0.9
sS'gamma'
p1817
F6.0
s(dp1818
S'successful_storage'
p1819
g21
(g25
S'\x9a\x99\x99\x99\x99\x99\xc9?'
p1820
tp1821
Rp1822
sS'avg_dist'
p1823
g21
(g25
S'K;\x9dv\xf5\x85\xd9?'
p1824
tp1825
Rp1826
sS'err'
p1827
g21
(g25
S'\x98\x99\x99\x99\x99\x99\xc9?'
p1828
tp1829
Rp1830
stp1831
a(I1491150179
(dp1832
S'learn_rate'
p1833
F0.01
sS'b'
p1834
F0.1
sS'shuffle'
p1835
I00
sS'f'
p1836
F0.5
sS'reapeat_sequence'
p1837
I1
sS'ham_dist_threshold'
p1838
F0.01
sS'eps'
p1839
F1.2
sS'N'
p1840
I1001
sS'initial_mean'
p1841
I1
sS'nbr_patterns'
p1842
I5
sS'initial_variance'
p1843
I1
sS'test_length'
p1844
I100
sS'theta'
p1845
F350.0
sS'nb_iter'
p1846
I50
sS'test_nb_iter'
p1847
I30
sS'successful_storage_rate'
p1848
F0.9
sS'gamma'
p1849
F6.0
s(dp1850
S'successful_storage'
p1851
g21
(g25
S'\x9a\x99\x99\x99\x99\x99\xc9?'
p1852
tp1853
Rp1854
sS'avg_dist'
p1855
g21
(g25
S'\xb2c\xaf\xc7\xc0#\xd9?'
p1856
tp1857
Rp1858
sS'err'
p1859
g21
(g25
S'\x98\x99\x99\x99\x99\x99\xc9?'
p1860
tp1861
Rp1862
stp1863
a(I1491150229
(dp1864
S'learn_rate'
p1865
F0.01
sS'b'
p1866
F0.1
sS'shuffle'
p1867
I00
sS'f'
p1868
F0.5
sS'reapeat_sequence'
p1869
I1
sS'ham_dist_threshold'
p1870
F0.01
sS'eps'
p1871
F1.2
sS'N'
p1872
I1001
sS'nbr_patterns'
p1873
I5
sS'initial_variance'
p1874
I1
sS'theta'
p1875
F350.0
sS'test_length'
p1876
I100
sS'initial_mean'
p1877
I1
sS'nb_iter'
p1878
I50
sS'test_nb_iter'
p1879
I30
sS'successful_storage_rate'
p1880
F0.9
sS'gamma'
p1881
F6.0
s(dp1882
S'successful_storage'
p1883
g21
(g25
S'\x9a\x99\x99\x99\x99\x99\xc9?'
p1884
tp1885
Rp1886
sS'avg_dist'
p1887
g21
(g25
S'\xb5\xe3\x0c\x14X\xde\xd9?'
p1888
tp1889
Rp1890
sS'err'
p1891
g21
(g25
S'\x98\x99\x99\x99\x99\x99\xc9?'
p1892
tp1893
Rp1894
stp1895
a(I1491150720
(dp1896
S'learn_rate'
p1897
F0.01
sS'b'
p1898
F0.1
sS'shuffle'
p1899
I00
sS'f'
p1900
F0.5
sS'reapeat_sequence'
p1901
I1
sS'ham_dist_threshold'
p1902
F0.01
sS'eps'
p1903
F1.2
sS'N'
p1904
I1001
sS'initial_mean'
p1905
I1
sS'nbr_patterns'
p1906
I5
sS'initial_variance'
p1907
I1
sS'test_length'
p1908
I100
sS'theta'
p1909
F350.0
sS'nb_iter'
p1910
I50
sS'test_nb_iter'
p1911
I30
sS'successful_storage_rate'
p1912
F0.9
sS'gamma'
p1913
F6.0
s(dp1914
S'successful_storage'
p1915
g21
(g25
S'\x9a\x99\x99\x99\x99\x99\xc9?'
p1916
tp1917
Rp1918
sS'avg_dist'
p1919
g21
(g25
S'\xc5\xd1\xa7\xabt3\xda?'
p1920
tp1921
Rp1922
sS'err'
p1923
g21
(g25
S'\x98\x99\x99\x99\x99\x99\xc9?'
p1924
tp1925
Rp1926
stp1927
a(I1491151128
(dp1928
S'learn_rate'
p1929
F0.01
sS'b'
p1930
F0.1
sS'shuffle'
p1931
I00
sS'f'
p1932
F0.5
sS'reapeat_sequence'
p1933
I1
sS'ham_dist_threshold'
p1934
F0.01
sS'eps'
p1935
F1.2
sS'N'
p1936
I1001
sS'nbr_patterns'
p1937
I5
sS'initial_variance'
p1938
I1
sS'theta'
p1939
F350.0
sS'test_length'
p1940
I100
sS'initial_mean'
p1941
I1
sS'nb_iter'
p1942
I50
sS'test_nb_iter'
p1943
I30
sS'successful_storage_rate'
p1944
F0.9
sS'gamma'
p1945
F6.0
s(dp1946
S'successful_storage'
p1947
g21
(g25
S'\x9a\x99\x99\x99\x99\x99\xc9?'
p1948
tp1949
Rp1950
sS'avg_dist'
p1951
g21
(g25
S'\x00\xdd\xa0SQr\xd9?'
p1952
tp1953
Rp1954
sS'err'
p1955
g21
(g25
S'\x98\x99\x99\x99\x99\x99\xc9?'
p1956
tp1957
Rp1958
stp1959
a(I1491151184
(dp1960
S'learn_rate'
p1961
F0.01
sS'b'
p1962
F0.1
sS'shuffle'
p1963
I00
sS'f'
p1964
F0.5
sS'nbr_patterns'
p1965
I5
sS'reapeat_sequence'
p1966
I1
sS'ham_dist_threshold'
p1967
F0.01
sS'eps'
p1968
F1.2
sS'N'
p1969
I1001
sS'initial_mean'
p1970
I1
sS'initial_variance'
p1971
I1
sS'test_length'
p1972
I100
sS'theta'
p1973
F350.0
sS'nb_iter'
p1974
I50
sS'test_nb_iter'
p1975
I30
sS'successful_storage_rate'
p1976
F0.9
sS'gamma'
p1977
F6.0
s(dp1978
S'successful_storage'
p1979
g21
(g25
S'\x9a\x99\x99\x99\x99\x99\xc9?'
p1980
tp1981
Rp1982
sS'avg_dist'
p1983
g21
(g25
S'\xe1w8p\xa6\xf2\xd8?'
p1984
tp1985
Rp1986
sS'err'
p1987
g21
(g25
S'\x98\x99\x99\x99\x99\x99\xc9?'
p1988
tp1989
Rp1990
stp1991
a(I1491151372
(dp1992
S'learn_rate'
p1993
F0.01
sS'b'
p1994
F0.1
sS'shuffle'
p1995
I00
sS'f'
p1996
F0.5
sS'reapeat_sequence'
p1997
I1
sS'ham_dist_threshold'
p1998
F0.01
sS'eps'
p1999
F1.2
sS'N'
p2000
I1001
sS'initial_mean'
p2001
I1
sS'initial_variance'
p2002
I1
sS'theta'
p2003
F350.0
sS'test_length'
p2004
I100
sS'nbr_patterns'
p2005
I5
sS'nb_iter'
p2006
I50
sS'test_nb_iter'
p2007
I30
sS'successful_storage_rate'
p2008
F0.9
sS'gamma'
p2009
F6.0
s(dp2010
S'successful_storage'
p2011
g21
(g25
S'\x9a\x99\x99\x99\x99\x99\xc9?'
p2012
tp2013
Rp2014
sS'avg_dist'
p2015
g21
(g25
S'm\xfc\xdd<B\xf5\xd9?'
p2016
tp2017
Rp2018
sS'err'
p2019
g21
(g25
S'\x98\x99\x99\x99\x99\x99\xc9?'
p2020
tp2021
Rp2022
stp2023
a(I1491151422
(dp2024
S'learn_rate'
p2025
F0.01
sS'b'
p2026
F0.1
sS'shuffle'
p2027
I00
sS'f'
p2028
F0.5
sS'reapeat_sequence'
p2029
I1
sS'ham_dist_threshold'
p2030
F0.01
sS'eps'
p2031
F1.2
sS'N'
p2032
I1001
sS'initial_mean'
p2033
I1
sS'nbr_patterns'
p2034
I5
sS'initial_variance'
p2035
I1
sS'test_length'
p2036
I100
sS'theta'
p2037
F350.0
sS'nb_iter'
p2038
I50
sS'test_nb_iter'
p2039
I30
sS'successful_storage_rate'
p2040
F0.9
sS'gamma'
p2041
F6.0
s(dp2042
S'successful_storage'
p2043
g21
(g25
S'\x9a\x99\x99\x99\x99\x99\xc9?'
p2044
tp2045
Rp2046
sS'avg_dist'
p2047
g21
(g25
S'\xa3\xf5q|;\x89\xd9?'
p2048
tp2049
Rp2050
sS'err'
p2051
g21
(g25
S'\x98\x99\x99\x99\x99\x99\xc9?'
p2052
tp2053
Rp2054
stp2055
a(I1491151511
(dp2056
S'learn_rate'
p2057
F0.01
sS'b'
p2058
F0.1
sS'shuffle'
p2059
I00
sS'f'
p2060
F0.5
sS'reapeat_sequence'
p2061
I1
sS'ham_dist_threshold'
p2062
F0.01
sS'eps'
p2063
F1.2
sS'N'
p2064
I1001
sS'nbr_patterns'
p2065
I5
sS'initial_variance'
p2066
I1
sS'theta'
p2067
F350.0
sS'test_length'
p2068
I100
sS'initial_mean'
p2069
I1
sS'nb_iter'
p2070
I50
sS'test_nb_iter'
p2071
I30
sS'successful_storage_rate'
p2072
F0.9
sS'gamma'
p2073
F6.0
s(dp2074
S'successful_storage'
p2075
g21
(g25
S'\x9a\x99\x99\x99\x99\x99\xc9?'
p2076
tp2077
Rp2078
sS'avg_dist'
p2079
g21
(g25
S'\xd3\x1b`\x8d\x04\x03\xd9?'
p2080
tp2081
Rp2082
sS'err'
p2083
g21
(g25
S'\x98\x99\x99\x99\x99\x99\xc9?'
p2084
tp2085
Rp2086
stp2087
a(I1491151787
(dp2088
S'learn_rate'
p2089
F0.01
sS'b'
p2090
F0.1
sS'shuffle'
p2091
I00
sS'f'
p2092
F0.5
sS'reapeat_sequence'
p2093
I1
sS'ham_dist_threshold'
p2094
F0.01
sS'eps'
p2095
F1.2
sS'N'
p2096
I1001
sS'initial_mean'
p2097
I1
sS'initial_variance'
p2098
I1
sS'theta'
p2099
F350.0
sS'test_length'
p2100
I100
sS'nbr_patterns'
p2101
I5
sS'nb_iter'
p2102
I50
sS'test_nb_iter'
p2103
I30
sS'successful_storage_rate'
p2104
F0.9
sS'gamma'
p2105
F6.0
s(dp2106
S'successful_storage'
p2107
g21
(g25
S'\x9a\x99\x99\x99\x99\x99\xc9?'
p2108
tp2109
Rp2110
sS'avg_dist'
p2111
g21
(g25
S'\xb6QJ_\xddx\xd9?'
p2112
tp2113
Rp2114
sS'err'
p2115
g21
(g25
S'\x98\x99\x99\x99\x99\x99\xc9?'
p2116
tp2117
Rp2118
stp2119
a(I1491151848
(dp2120
S'learn_rate'
p2121
F0.01
sS'b'
p2122
F0.1
sS'shuffle'
p2123
I00
sS'f'
p2124
F0.5
sS'reapeat_sequence'
p2125
I1
sS'ham_dist_threshold'
p2126
F0.01
sS'eps'
p2127
F1.2
sS'N'
p2128
I1001
sS'initial_mean'
p2129
I1
sS'nbr_patterns'
p2130
I5
sS'initial_variance'
p2131
I1
sS'test_length'
p2132
I100
sS'theta'
p2133
F350.0
sS'nb_iter'
p2134
I50
sS'test_nb_iter'
p2135
I30
sS'successful_storage_rate'
p2136
F0.9
sS'gamma'
p2137
F6.0
s(dp2138
S'successful_storage'
p2139
g21
(g25
S'\x9a\x99\x99\x99\x99\x99\xc9?'
p2140
tp2141
Rp2142
sS'avg_dist'
p2143
g21
(g25
S'\x02\xcb;\xebm\xc7\xd9?'
p2144
tp2145
Rp2146
sS'err'
p2147
g21
(g25
S'\x98\x99\x99\x99\x99\x99\xc9?'
p2148
tp2149
Rp2150
stp2151
a(I1491151955
(dp2152
S'learn_rate'
p2153
F0.01
sS'b'
p2154
F0.1
sS'shuffle'
p2155
I00
sS'f'
p2156
F0.5
sS'reapeat_sequence'
p2157
I1
sS'ham_dist_threshold'
p2158
F0.01
sS'eps'
p2159
F1.2
sS'N'
p2160
I1001
sS'nbr_patterns'
p2161
I5
sS'initial_variance'
p2162
I1
sS'theta'
p2163
F350.0
sS'test_length'
p2164
I100
sS'initial_mean'
p2165
I1
sS'nb_iter'
p2166
I50
sS'test_nb_iter'
p2167
I30
sS'successful_storage_rate'
p2168
F0.9
sS'gamma'
p2169
F6.0
s(dp2170
S'successful_storage'
p2171
g21
(g25
S'\x9a\x99\x99\x99\x99\x99\xc9?'
p2172
tp2173
Rp2174
sS'avg_dist'
p2175
g21
(g25
S'\xbaQJ_\xddx\xd9?'
p2176
tp2177
Rp2178
sS'err'
p2179
g21
(g25
S'\x98\x99\x99\x99\x99\x99\xc9?'
p2180
tp2181
Rp2182
stp2183
a(I1491152014
(dp2184
S'learn_rate'
p2185
F0.01
sS'b'
p2186
F0.1
sS'shuffle'
p2187
I00
sS'f'
p2188
F0.5
sS'nbr_patterns'
p2189
I5
sS'reapeat_sequence'
p2190
I1
sS'ham_dist_threshold'
p2191
F0.01
sS'eps'
p2192
F1.2
sS'N'
p2193
I1001
sS'initial_mean'
p2194
I1
sS'initial_variance'
p2195
I1
sS'test_length'
p2196
I100
sS'theta'
p2197
F350.0
sS'nb_iter'
p2198
I50
sS'test_nb_iter'
p2199
I30
sS'successful_storage_rate'
p2200
F0.9
sS'gamma'
p2201
F6.0
s(dp2202
S'successful_storage'
p2203
g21
(g25
S'\x9a\x99\x99\x99\x99\x99\xc9?'
p2204
tp2205
Rp2206
sS'avg_dist'
p2207
g21
(g25
S'\xfbSn\x9f\xdf\x9c\xd9?'
p2208
tp2209
Rp2210
sS'err'
p2211
g21
(g25
S'\x98\x99\x99\x99\x99\x99\xc9?'
p2212
tp2213
Rp2214
stp2215
a.